
program.elf:     file format elf32-tradlittlemips

SYMBOL TABLE:
9fc00000 l    d  .bootrom	00000000 .bootrom
80000000 l    d  .exception_vector	00000000 .exception_vector
80000200 l    d  .text	00000000 .text
00000000 l    d  .debug_aranges	00000000 .debug_aranges
00000000 l    d  .debug_info	00000000 .debug_info
00000000 l    d  .debug_abbrev	00000000 .debug_abbrev
00000000 l    d  .debug_line	00000000 .debug_line
00000000 l    d  .pdr	00000000 .pdr
00000000 l    d  .gnu.attributes	00000000 .gnu.attributes
00000000 l    df *ABS*	00000000 boot.o
9fc00004 l       .bootrom	00000000 init_cp0
9fc00018 l       .bootrom	00000000 init_tlb
9fc00060 l       .bootrom	00000000 init_icache
9fc00044 l       .bootrom	00000000 next_tlb_entry
9fc000ac l       .bootrom	00000000 done_icache
9fc0009c l       .bootrom	00000000 next_icache_tag
9fc000ac l       .bootrom	00000000 enable_k0_cache
9fc000cc l       .bootrom	00000000 init_dcache
9fc0011c l       .bootrom	00000000 done_dcache
9fc0010c l       .bootrom	00000000 next_dcache_tag
9fc0013c l       .bootrom	00000000 all_done
00000000 l    df *ABS*	00000000 exceptions.o
80000000 l       .exception_vector	00000000 __tlb_refill_loop
80000080 l       .exception_vector	00000000 __xtlb_refill_loop
80000100 l       .exception_vector	00000000 __cache_error_loop
80000180 l       .exception_vector	00000000 __general_exception_loop
00000000 l    df *ABS*	00000000 main.o
00000000 l       *ABS*	00000000 NORTH
00000001 l       *ABS*	00000000 NORTHEAST
00000002 l       *ABS*	00000000 EAST
00000003 l       *ABS*	00000000 SOUTHEAST
00000004 l       *ABS*	00000000 SOUTH
00000005 l       *ABS*	00000000 SOUTHWEST
00000006 l       *ABS*	00000000 WEST
00000007 l       *ABS*	00000000 NORTHWEST
00000000 l       *ABS*	00000000 STOPPED
00000001 l       *ABS*	00000000 SLOW
00000002 l       *ABS*	00000000 MEDIUM
00000003 l       *ABS*	00000000 FAST
bf700000 l       *ABS*	00000000 PORT_SEVENSEG_EN
bf700004 l       *ABS*	00000000 PORT_SEVENSEG_HGH
bf700008 l       *ABS*	00000000 PORT_SEVENSEG_LOW
bf70000c l       *ABS*	00000000 PORT_SEVENSEG_DP
bf800008 l       *ABS*	00000000 BUTTONS_ADDR
bf800000 l       *ABS*	00000000 LEDS_ADDR
bf800004 l       *ABS*	00000000 PORT_SLSWTCH
bf800018 l       *ABS*	00000000 PORT_MAPSELECT
bf80001c l       *ABS*	00000000 X_ACC_ADDR
bf800020 l       *ABS*	00000000 Y_ACC_ADDR
bf800024 l       *ABS*	00000000 Z_ACC_ADDR
bf800014 l       *ABS*	00000000 PORT_BOTCTRL
bf80000c l       *ABS*	00000000 PORT_BOTINFO
bf800010 l       *ABS*	00000000 PORT_SOFTRESET
00000800 l       *ABS*	00000000 BIT_12_MASK
00000008 l       *ABS*	00000000 INFO_DEADLOCK_MASK
00000020 l       *ABS*	00000000 INFO_MAZEEND
00000010 l       *ABS*	00000000 INFO_WALLCRASH
00000010 l       *ABS*	00000000 C_BUTTON_MASK
00000001 l       *ABS*	00000000 MODE_SWI_MASK
00000001 l       *ABS*	00000000 LED0_LIT
000000fe l       *ABS*	00000000 LED0_OFF
00000002 l       *ABS*	00000000 LED1_LIT
000000fd l       *ABS*	00000000 LED1_OFF
00000004 l       *ABS*	00000000 LED2_LIT
000000fb l       *ABS*	00000000 LED2_OFF
00000000 l       *ABS*	00000000 GAMEOVER
00000001 l       *ABS*	00000000 GAMEWIN
00000002 l       *ABS*	00000000 LEVELWIN
00000003 l       *ABS*	00000000 LEVEL1
00000004 l       *ABS*	00000000 LEVEL2
00000005 l       *ABS*	00000000 LEVEL3
00000005 l       *ABS*	00000000 LASTLEVEL
1c1c1c0c l       *ABS*	00000000 CLEARED_DIGITS
80000284 l       .text	00000000 MAINLOOP
800007bc l       .text	00000000 TOLERANCE_FUNCTION
80000370 l       .text	00000000 MAINGAMELOOP
800002ec l       .text	00000000 DEBUGLOOP
80000360 l       .text	00000000 DEBUGSOFTRESET
80000308 l       .text	00000000 DEBUG_MAIN_LOGIC
800007f0 l       .text	00000000 LED_FUNCITON
80000824 l       .text	00000000 BCD_FUNCTION
800005c8 l       .text	00000000 BOTHMODESLOGIC
80000524 l       .text	00000000 SOFTRESET
80000398 l       .text	00000000 WALLHIT
800005b0 l       .text	00000000 MAINGAMELOGIC
800003b0 l       .text	00000000 IFWALLHIT
800003c8 l       .text	00000000 IFLEVELWIN
80000540 l       .text	00000000 CLEAR_7SEG
800003e0 l       .text	00000000 LOSS_LOGIC
80000480 l       .text	00000000 DISPLAYWIN
80000438 l       .text	00000000 DISPLAYGAMEOVER
800003f0 l       .text	00000000 LOSSWAIT
80000400 l       .text	00000000 LOSS_RESET
8000044c l       .text	00000000 LOSSEND
80000454 l       .text	00000000 LOSS_SETLIVES
80000424 l       .text	00000000 LOSS_GAMEOVER
80000464 l       .text	00000000 RESETLIVES
8000046c l       .text	00000000 DECLIVES
80000478 l       .text	00000000 LOSS_SETLIVES_END
8000049c l       .text	00000000 GAMEWINCHECK
800004f4 l       .text	00000000 DISPLAYING_GAME_WIN
800004b0 l       .text	00000000 NOT_DISPLAYING_GAME_WIN
800004c4 l       .text	00000000 DISPLAYGAMEWIN
800004dc l       .text	00000000 DISPLAYLEVELWIN
8000051c l       .text	00000000 GAMEWINEND
80000504 l       .text	00000000 GAMEWINENTER
80000574 l       .text	00000000 DISPLAY_LIVES_7SEG
800005c8 l       .text	00000000 MOVEMENT_LOGIC
800005ec l       .text	00000000 CALCULATE_TWOS_COMPLEMENT_X
80000604 l       .text	00000000 CALCULATE_TWOS_COMPLEMENT_Y
80000610 l       .text	00000000 POST_TWO_COMPLEMENT_LOGIC
800008dc l       .text	00000000 TWOS_COMPLEMENT_FUNCTION
80000634 l       .text	00000000 X_GT_300
80000668 l       .text	00000000 Y_GT_300
800006e4 l       .text	00000000 END_OF_DIRECTION_LOGIC
80000648 l       .text	00000000 X_GT_300_AND_Y_LT_300
8000069c l       .text	00000000 X_GT_300_AND_Y_GT_300
80000658 l       .text	00000000 X_GT_300_AND_Y_LT_300_X_NEG
80000660 l       .text	00000000 X_GT_300_AND_Y_LT_300_X_POS
8000067c l       .text	00000000 X_LT_300_AND_Y_GT_300
8000068c l       .text	00000000 X_LT_300_AND_Y_GT_300_Y_NEG
80000694 l       .text	00000000 X_LT_300_AND_Y_GT_300_Y_POS
800006bc l       .text	00000000 X_GT_300_AND_Y_GT_300_X_NEG
800006cc l       .text	00000000 X_GT_300_AND_Y_GT_300_X_POS_Y_NEG
800006dc l       .text	00000000 X_GT_300_AND_Y_GT_300_X_POS_AND_Y_POS
800006d4 l       .text	00000000 X_GT_300_AND_Y_GT_300_X_NEG_Y_NEG
800006ec l       .text	00000000 CALC_X_SPEED
80000704 l       .text	00000000 X_SPEED_SLOW
80000744 l       .text	00000000 CALC_Y_SPEED
80000720 l       .text	00000000 X_SPEED_MEDIUM
8000073c l       .text	00000000 X_SPEED_FAST
8000075c l       .text	00000000 Y_SPEED_SLOW
8000079c l       .text	00000000 END_SPEED_LOGIC
80000778 l       .text	00000000 Y_SPEED_MEDIUM
80000794 l       .text	00000000 Y_SPEED_FAST
800007bc l       .text	00000000 LT_TEMP_MINUS_TOLERANCE
800007e8 l       .text	00000000 SET_XYZ
800007d0 l       .text	00000000 GT_TEMP_PLUS_TOLERANCE
80000808 l       .text	00000000 NEGATIVE
80000810 l       .text	00000000 POSITIVE
80000818 l       .text	00000000 checkposEnd
8000083c l       .text	00000000 TWOS_COMPLEMENT
80000848 l       .text	00000000 SKIP_TWOS_COMPLEMENT
80000858 l       .text	00000000 COUNT_1000S
80000870 l       .text	00000000 COUNT_100S
80000888 l       .text	00000000 COUNT_10S
800008a0 l       .text	00000000 COUNT_1S
800008b8 l       .text	00000000 END_BCD
80000200  w    F .text	00000000 __exception_handle_verbose
800008ec g       .text	00000000 _etext
80008910 g       *ABS*	00000000 _gp
00000020 g       *ABS*	00000000 __isr_vec_space
00000000 g       *ABS*	00000000 __DYNAMIC
00000001 g       *ABS*	00000000 __use_excpt_boot
00000000  w      *UND*	00000000 _mips_xtlb_refill
80000200  w    F .text	00000000 __register_excpt_boot
80000200  w    F .text	00000000 __register_excpt_handler
80000000 g       *ABS*	00000000 __app_start
80000000 g       *ABS*	00000000 __flash_app_start
80000200 g       .text	00000000 _ftext
9fc00144 g     F .bootrom	0000006c _start
80000000 g       *ABS*	00000000 __excpt_ebase
80000204 g     O .text	00000000 main
80000200 g     F .text	00000000 __exception_handle
bfc00000 g       *ABS*	00000000 __entry
80000200  w    F .text	00000004 __getargs
00000000  w      *UND*	00000000 _mips_general_exception
00000000  w      *UND*	00000000 _mips_tlb_refill
00000000  w      *UND*	00000000 _mips_cache_error
80040000 g       *ABS*	00000000 __stack
80000000 g     F .exception_vector	00000198 __exception_entry
80000000 g       .exception_vector	00000000 __base
bfc00000 g       *ABS*	00000000 __flash_start
9fc00000 g     F .bootrom	00000144 __reset_vector
0001f800 g       *ABS*	00000000 __memory_size
80008910 g       *ABS*	00000000 __global
80000200  w    F .text	00000000 __isr_vec
00000000 g       *ABS*	00000000 __isr_vec_count



Disassembly of section .bootrom:

9fc00000 <__reset_vector>:
C:\Users\RampantVelcro\Desktop\SocProject1\software/boot.S:20
9fc00000:	40804800 	mtc0	zero,c0_count

9fc00004 <init_cp0>:
C:\Users\RampantVelcro\Desktop\SocProject1\software/boot.S:27
9fc00004:	3c030040 	lui	v1,0x40
9fc00008:	34630004 	ori	v1,v1,0x4
C:\Users\RampantVelcro\Desktop\SocProject1\software/boot.S:28
9fc0000c:	40836000 	mtc0	v1,c0_status
C:\Users\RampantVelcro\Desktop\SocProject1\software/boot.S:31
9fc00010:	40806800 	mtc0	zero,c0_cause
C:\Users\RampantVelcro\Desktop\SocProject1\software/boot.S:34
9fc00014:	40805800 	mtc0	zero,c0_compare

9fc00018 <init_tlb>:
C:\Users\RampantVelcro\Desktop\SocProject1\software/boot.S:44
9fc00018:	40038000 	mfc0	v1,c0_config
C:\Users\RampantVelcro\Desktop\SocProject1\software/boot.S:45
9fc0001c:	7c6311c0 	ext	v1,v1,0x7,0x3
C:\Users\RampantVelcro\Desktop\SocProject1\software/boot.S:46
9fc00020:	24070001 	li	a3,1
C:\Users\RampantVelcro\Desktop\SocProject1\software/boot.S:47
9fc00024:	1467000e 	bne	v1,a3,9fc00060 <init_icache>
C:\Users\RampantVelcro\Desktop\SocProject1\software/boot.S:50
9fc00028:	40028001 	mfc0	v0,c0_config1
C:\Users\RampantVelcro\Desktop\SocProject1\software/boot.S:51
9fc0002c:	7c432e40 	ext	v1,v0,0x19,0x6
C:\Users\RampantVelcro\Desktop\SocProject1\software/boot.S:52
9fc00030:	40801000 	mtc0	zero,c0_entrylo0
C:\Users\RampantVelcro\Desktop\SocProject1\software/boot.S:53
9fc00034:	40801800 	mtc0	zero,c0_entrylo1
C:\Users\RampantVelcro\Desktop\SocProject1\software/boot.S:54
9fc00038:	40802800 	mtc0	zero,c0_pagemask
C:\Users\RampantVelcro\Desktop\SocProject1\software/boot.S:55
9fc0003c:	40803000 	mtc0	zero,c0_wired
C:\Users\RampantVelcro\Desktop\SocProject1\software/boot.S:56
9fc00040:	3c048000 	lui	a0,0x8000

9fc00044 <next_tlb_entry>:
C:\Users\RampantVelcro\Desktop\SocProject1\software/boot.S:59
9fc00044:	40830000 	mtc0	v1,c0_index
C:\Users\RampantVelcro\Desktop\SocProject1\software/boot.S:60
9fc00048:	40845000 	mtc0	a0,c0_entryhi
C:\Users\RampantVelcro\Desktop\SocProject1\software/boot.S:61
9fc0004c:	000000c0 	ehb
C:\Users\RampantVelcro\Desktop\SocProject1\software/boot.S:62
9fc00050:	42000002 	tlbwi
C:\Users\RampantVelcro\Desktop\SocProject1\software/boot.S:63
9fc00054:	20844000 	addi	a0,a0,16384
C:\Users\RampantVelcro\Desktop\SocProject1\software/boot.S:65
9fc00058:	1460fffa 	bnez	v1,9fc00044 <next_tlb_entry>
C:\Users\RampantVelcro\Desktop\SocProject1\software/boot.S:66
9fc0005c:	2063ffff 	addi	v1,v1,-1

9fc00060 <init_icache>:
C:\Users\RampantVelcro\Desktop\SocProject1\software/boot.S:73
9fc00060:	40028001 	mfc0	v0,c0_config1
C:\Users\RampantVelcro\Desktop\SocProject1\software/boot.S:74
9fc00064:	7c4314c0 	ext	v1,v0,0x13,0x3
C:\Users\RampantVelcro\Desktop\SocProject1\software/boot.S:75
9fc00068:	10600010 	beqz	v1,9fc000ac <done_icache>
C:\Users\RampantVelcro\Desktop\SocProject1\software/boot.S:76
9fc0006c:	00000000 	nop
C:\Users\RampantVelcro\Desktop\SocProject1\software/boot.S:78
9fc00070:	24060002 	li	a2,2
C:\Users\RampantVelcro\Desktop\SocProject1\software/boot.S:79
9fc00074:	00661804 	sllv	v1,a2,v1
C:\Users\RampantVelcro\Desktop\SocProject1\software/boot.S:81
9fc00078:	7c441580 	ext	a0,v0,0x16,0x3
C:\Users\RampantVelcro\Desktop\SocProject1\software/boot.S:82
9fc0007c:	24060040 	li	a2,64
C:\Users\RampantVelcro\Desktop\SocProject1\software/boot.S:83
9fc00080:	00862004 	sllv	a0,a2,a0
C:\Users\RampantVelcro\Desktop\SocProject1\software/boot.S:85
9fc00084:	7c451400 	ext	a1,v0,0x10,0x3
C:\Users\RampantVelcro\Desktop\SocProject1\software/boot.S:86
9fc00088:	20a50001 	addi	a1,a1,1
C:\Users\RampantVelcro\Desktop\SocProject1\software/boot.S:87
9fc0008c:	70852002 	mul	a0,a0,a1
C:\Users\RampantVelcro\Desktop\SocProject1\software/boot.S:88
9fc00090:	3c068000 	lui	a2,0x8000
C:\Users\RampantVelcro\Desktop\SocProject1\software/boot.S:90
9fc00094:	4080e000 	mtc0	zero,c0_taglo
C:\Users\RampantVelcro\Desktop\SocProject1\software/boot.S:91
9fc00098:	00803825 	move	a3,a0

9fc0009c <next_icache_tag>:
C:\Users\RampantVelcro\Desktop\SocProject1\software/boot.S:96
9fc0009c:	bcc80000 	cache	0x8,0(a2)
C:\Users\RampantVelcro\Desktop\SocProject1\software/boot.S:97
9fc000a0:	20e7ffff 	addi	a3,a3,-1
C:\Users\RampantVelcro\Desktop\SocProject1\software/boot.S:98
9fc000a4:	14e0fffd 	bnez	a3,9fc0009c <next_icache_tag>
C:\Users\RampantVelcro\Desktop\SocProject1\software/boot.S:99
9fc000a8:	00c33020 	add	a2,a2,v1

9fc000ac <done_icache>:
C:\Users\RampantVelcro\Desktop\SocProject1\software/boot.S:111
9fc000ac:	40028000 	mfc0	v0,c0_config
C:\Users\RampantVelcro\Desktop\SocProject1\software/boot.S:112
9fc000b0:	24030003 	li	v1,3
C:\Users\RampantVelcro\Desktop\SocProject1\software/boot.S:113
9fc000b4:	7c621004 	ins	v0,v1,0x0,0x3
C:\Users\RampantVelcro\Desktop\SocProject1\software/boot.S:114
9fc000b8:	40828000 	mtc0	v0,c0_config
C:\Users\RampantVelcro\Desktop\SocProject1\software/boot.S:116
9fc000bc:	3c069fc0 	lui	a2,0x9fc0
9fc000c0:	24c600cc 	addiu	a2,a2,204
C:\Users\RampantVelcro\Desktop\SocProject1\software/boot.S:117
9fc000c4:	00c00008 	jr	a2
C:\Users\RampantVelcro\Desktop\SocProject1\software/boot.S:118
9fc000c8:	000000c0 	ehb

9fc000cc <init_dcache>:
C:\Users\RampantVelcro\Desktop\SocProject1\software/boot.S:124
9fc000cc:	40028001 	mfc0	v0,c0_config1
C:\Users\RampantVelcro\Desktop\SocProject1\software/boot.S:125
9fc000d0:	7c431280 	ext	v1,v0,0xa,0x3
C:\Users\RampantVelcro\Desktop\SocProject1\software/boot.S:126
9fc000d4:	10600011 	beqz	v1,9fc0011c <done_dcache>
C:\Users\RampantVelcro\Desktop\SocProject1\software/boot.S:127
9fc000d8:	00000000 	nop
C:\Users\RampantVelcro\Desktop\SocProject1\software/boot.S:129
9fc000dc:	24060002 	li	a2,2
C:\Users\RampantVelcro\Desktop\SocProject1\software/boot.S:130
9fc000e0:	00661804 	sllv	v1,a2,v1
C:\Users\RampantVelcro\Desktop\SocProject1\software/boot.S:132
9fc000e4:	7c441340 	ext	a0,v0,0xd,0x3
C:\Users\RampantVelcro\Desktop\SocProject1\software/boot.S:133
9fc000e8:	24060040 	li	a2,64
C:\Users\RampantVelcro\Desktop\SocProject1\software/boot.S:134
9fc000ec:	00862004 	sllv	a0,a2,a0
C:\Users\RampantVelcro\Desktop\SocProject1\software/boot.S:136
9fc000f0:	7c4511c0 	ext	a1,v0,0x7,0x3
C:\Users\RampantVelcro\Desktop\SocProject1\software/boot.S:137
9fc000f4:	20a50001 	addi	a1,a1,1
C:\Users\RampantVelcro\Desktop\SocProject1\software/boot.S:138
9fc000f8:	70852002 	mul	a0,a0,a1
C:\Users\RampantVelcro\Desktop\SocProject1\software/boot.S:139
9fc000fc:	3c068000 	lui	a2,0x8000
C:\Users\RampantVelcro\Desktop\SocProject1\software/boot.S:141
9fc00100:	4080e000 	mtc0	zero,c0_taglo
C:\Users\RampantVelcro\Desktop\SocProject1\software/boot.S:142
9fc00104:	4080e002 	mtc0	zero,c0_taglo1
C:\Users\RampantVelcro\Desktop\SocProject1\software/boot.S:143
9fc00108:	00803825 	move	a3,a0

9fc0010c <next_dcache_tag>:
C:\Users\RampantVelcro\Desktop\SocProject1\software/boot.S:148
9fc0010c:	bcc90000 	cache	0x9,0(a2)
C:\Users\RampantVelcro\Desktop\SocProject1\software/boot.S:149
9fc00110:	20e7ffff 	addi	a3,a3,-1
C:\Users\RampantVelcro\Desktop\SocProject1\software/boot.S:150
9fc00114:	14e0fffd 	bnez	a3,9fc0010c <next_dcache_tag>
C:\Users\RampantVelcro\Desktop\SocProject1\software/boot.S:151
9fc00118:	00c33020 	add	a2,a2,v1

9fc0011c <done_dcache>:
C:\Users\RampantVelcro\Desktop\SocProject1\software/boot.S:156
9fc0011c:	3c1f9fc0 	lui	ra,0x9fc0
9fc00120:	27ff013c 	addiu	ra,ra,316
C:\Users\RampantVelcro\Desktop\SocProject1\software/boot.S:157
9fc00124:	00002025 	move	a0,zero
C:\Users\RampantVelcro\Desktop\SocProject1\software/boot.S:159
9fc00128:	3c029fc0 	lui	v0,0x9fc0
9fc0012c:	24420144 	addiu	v0,v0,324
C:\Users\RampantVelcro\Desktop\SocProject1\software/boot.S:160
9fc00130:	4082f000 	mtc0	v0,c0_errorepc
C:\Users\RampantVelcro\Desktop\SocProject1\software/boot.S:161
9fc00134:	000000c0 	ehb
C:\Users\RampantVelcro\Desktop\SocProject1\software/boot.S:165
9fc00138:	42000018 	eret

9fc0013c <all_done>:
C:\Users\RampantVelcro\Desktop\SocProject1\software/boot.S:171
9fc0013c:	1000ffff 	b	9fc0013c <all_done>
C:\Users\RampantVelcro\Desktop\SocProject1\software/boot.S:172
9fc00140:	00000000 	nop

9fc00144 <_start>:
C:\Users\RampantVelcro\Desktop\SocProject1\software/crt0.S:16
9fc00144:	03e08025 	move	s0,ra
C:\Users\RampantVelcro\Desktop\SocProject1\software/crt0.S:18
9fc00148:	3c1c8001 	lui	gp,0x8001
9fc0014c:	279c8910 	addiu	gp,gp,-30448
C:\Users\RampantVelcro\Desktop\SocProject1\software/crt0.S:20
9fc00150:	3c1d8004 	lui	sp,0x8004
9fc00154:	27bd0000 	addiu	sp,sp,0
C:\Users\RampantVelcro\Desktop\SocProject1\software/crt0.S:22
9fc00158:	3c028000 	lui	v0,0x8000
9fc0015c:	24420910 	addiu	v0,v0,2320
C:\Users\RampantVelcro\Desktop\SocProject1\software/crt0.S:23
9fc00160:	3c038000 	lui	v1,0x8000
9fc00164:	24630910 	addiu	v1,v1,2320
C:\Users\RampantVelcro\Desktop\SocProject1\software/crt0.S:24
9fc00168:	10430004 	beq	v0,v1,9fc0017c <_start+0x38>
9fc0016c:	00000000 	nop
C:\Users\RampantVelcro\Desktop\SocProject1\software/crt0.S:26
9fc00170:	24420004 	addiu	v0,v0,4
C:\Users\RampantVelcro\Desktop\SocProject1\software/crt0.S:28
9fc00174:	1443fffe 	bne	v0,v1,9fc00170 <_start+0x2c>
9fc00178:	ac40fffc 	sw	zero,-4(v0)
C:\Users\RampantVelcro\Desktop\SocProject1\software/crt0.S:31
9fc0017c:	24040000 	li	a0,0
C:\Users\RampantVelcro\Desktop\SocProject1\software/crt0.S:33
9fc00180:	27bdfff0 	addiu	sp,sp,-16
C:\Users\RampantVelcro\Desktop\SocProject1\software/crt0.S:37
9fc00184:	40026000 	mfc0	v0,c0_status
C:\Users\RampantVelcro\Desktop\SocProject1\software/crt0.S:38
9fc00188:	7c02b584 	ins	v0,zero,0x16,0x1
C:\Users\RampantVelcro\Desktop\SocProject1\software/crt0.S:39
9fc0018c:	40826000 	mtc0	v0,c0_status
C:\Users\RampantVelcro\Desktop\SocProject1\software/crt0.S:40
9fc00190:	000000c0 	ehb
C:\Users\RampantVelcro\Desktop\SocProject1\software/crt0.S:43
9fc00194:	3c088000 	lui	t0,0x8000
9fc00198:	25080204 	addiu	t0,t0,516
C:\Users\RampantVelcro\Desktop\SocProject1\software/crt0.S:44
9fc0019c:	0100f809 	jalr	t0
9fc001a0:	00000000 	nop
C:\Users\RampantVelcro\Desktop\SocProject1\software/crt0.S:47
9fc001a4:	0200f825 	move	ra,s0
C:\Users\RampantVelcro\Desktop\SocProject1\software/crt0.S:48
9fc001a8:	03e00008 	jr	ra
9fc001ac:	00000000 	nop

Disassembly of section .exception_vector:

80000000 <__exception_entry>:
C:\Users\RampantVelcro\Desktop\SocProject1\software/exceptions.S:45
80000000:	3c1b0000 	lui	k1,0x0
80000004:	277b0000 	addiu	k1,k1,0
C:\Users\RampantVelcro\Desktop\SocProject1\software/exceptions.S:46
80000008:	1360fffd 	beqz	k1,80000000 <__exception_entry>
8000000c:	00000000 	nop
C:\Users\RampantVelcro\Desktop\SocProject1\software/exceptions.S:47
80000010:	03600008 	jr	k1
80000014:	00000000 	nop
	...

80000080 <__xtlb_refill_loop>:
C:\Users\RampantVelcro\Desktop\SocProject1\software/exceptions.S:52
80000080:	3c1b0000 	lui	k1,0x0
80000084:	277b0000 	addiu	k1,k1,0
C:\Users\RampantVelcro\Desktop\SocProject1\software/exceptions.S:53
80000088:	1360fffd 	beqz	k1,80000080 <__xtlb_refill_loop>
8000008c:	00000000 	nop
C:\Users\RampantVelcro\Desktop\SocProject1\software/exceptions.S:54
80000090:	03600008 	jr	k1
80000094:	00000000 	nop
	...

80000100 <__cache_error_loop>:
C:\Users\RampantVelcro\Desktop\SocProject1\software/exceptions.S:59
80000100:	3c1b0000 	lui	k1,0x0
80000104:	277b0000 	addiu	k1,k1,0
C:\Users\RampantVelcro\Desktop\SocProject1\software/exceptions.S:60
80000108:	1360fffd 	beqz	k1,80000100 <__cache_error_loop>
8000010c:	00000000 	nop
C:\Users\RampantVelcro\Desktop\SocProject1\software/exceptions.S:61
80000110:	03600008 	jr	k1
80000114:	00000000 	nop
	...

80000180 <__general_exception_loop>:
C:\Users\RampantVelcro\Desktop\SocProject1\software/exceptions.S:66
80000180:	3c1b0000 	lui	k1,0x0
80000184:	277b0000 	addiu	k1,k1,0
C:\Users\RampantVelcro\Desktop\SocProject1\software/exceptions.S:67
80000188:	1360fffd 	beqz	k1,80000180 <__general_exception_loop>
8000018c:	00000000 	nop
C:\Users\RampantVelcro\Desktop\SocProject1\software/exceptions.S:68
80000190:	03600008 	jr	k1
80000194:	00000000 	nop
	...

Disassembly of section .text:

80000200 <__exception_handle>:
C:\Users\RampantVelcro\Desktop\SocProject1\software/dummy.S:59
80000200:	00000000 	nop

80000204 <main>:
C:\Users\RampantVelcro\Desktop\Class\Fall2018\ECE540\ECE540FinalProject\Source\software\final_software_1/main.S:108
80000204:	24130003 	li	s3,3
C:\Users\RampantVelcro\Desktop\Class\Fall2018\ECE540\ECE540FinalProject\Source\software\final_software_1/main.S:109
80000208:	24140003 	li	s4,3
C:\Users\RampantVelcro\Desktop\Class\Fall2018\ECE540\ECE540FinalProject\Source\software\final_software_1/main.S:110
8000020c:	24150000 	li	s5,0
C:\Users\RampantVelcro\Desktop\Class\Fall2018\ECE540\ECE540FinalProject\Source\software\final_software_1/main.S:111
80000210:	24160000 	li	s6,0
C:\Users\RampantVelcro\Desktop\Class\Fall2018\ECE540\ECE540FinalProject\Source\software\final_software_1/main.S:112
80000214:	24170000 	li	s7,0
C:\Users\RampantVelcro\Desktop\Class\Fall2018\ECE540\ECE540FinalProject\Source\software\final_software_1/main.S:113
80000218:	24180000 	li	t8,0
C:\Users\RampantVelcro\Desktop\Class\Fall2018\ECE540\ECE540FinalProject\Source\software\final_software_1/main.S:114
8000021c:	24190000 	li	t9,0
C:\Users\RampantVelcro\Desktop\Class\Fall2018\ECE540\ECE540FinalProject\Source\software\final_software_1/main.S:115
80000220:	24090000 	li	t1,0
C:\Users\RampantVelcro\Desktop\Class\Fall2018\ECE540\ECE540FinalProject\Source\software\final_software_1/main.S:118
80000224:	3c1bbf70 	lui	k1,0xbf70
80000228:	377b0008 	ori	k1,k1,0x8
C:\Users\RampantVelcro\Desktop\Class\Fall2018\ECE540\ECE540FinalProject\Source\software\final_software_1/main.S:119
8000022c:	3c1a0b00 	lui	k0,0xb00
80000230:	375a000b 	ori	k0,k0,0xb
C:\Users\RampantVelcro\Desktop\Class\Fall2018\ECE540\ECE540FinalProject\Source\software\final_software_1/main.S:120
80000234:	af7a0000 	sw	k0,0(k1)
C:\Users\RampantVelcro\Desktop\Class\Fall2018\ECE540\ECE540FinalProject\Source\software\final_software_1/main.S:123
80000238:	3c1bbf70 	lui	k1,0xbf70
8000023c:	377b0004 	ori	k1,k1,0x4
C:\Users\RampantVelcro\Desktop\Class\Fall2018\ECE540\ECE540FinalProject\Source\software\final_software_1/main.S:124
80000240:	241a0000 	li	k0,0
C:\Users\RampantVelcro\Desktop\Class\Fall2018\ECE540\ECE540FinalProject\Source\software\final_software_1/main.S:125
80000244:	af7a0000 	sw	k0,0(k1)
C:\Users\RampantVelcro\Desktop\Class\Fall2018\ECE540\ECE540FinalProject\Source\software\final_software_1/main.S:128
80000248:	3c04bf70 	lui	a0,0xbf70
C:\Users\RampantVelcro\Desktop\Class\Fall2018\ECE540\ECE540FinalProject\Source\software\final_software_1/main.S:129
8000024c:	241a0000 	li	k0,0
C:\Users\RampantVelcro\Desktop\Class\Fall2018\ECE540\ECE540FinalProject\Source\software\final_software_1/main.S:130
80000250:	ac9a0000 	sw	k0,0(a0)
C:\Users\RampantVelcro\Desktop\Class\Fall2018\ECE540\ECE540FinalProject\Source\software\final_software_1/main.S:132
80000254:	3c14bf80 	lui	s4,0xbf80
80000258:	3694001c 	ori	s4,s4,0x1c
C:\Users\RampantVelcro\Desktop\Class\Fall2018\ECE540\ECE540FinalProject\Source\software\final_software_1/main.S:133
8000025c:	3c15bf80 	lui	s5,0xbf80
80000260:	36b50020 	ori	s5,s5,0x20
C:\Users\RampantVelcro\Desktop\Class\Fall2018\ECE540\ECE540FinalProject\Source\software\final_software_1/main.S:134
80000264:	3c16bf80 	lui	s6,0xbf80
80000268:	36d60024 	ori	s6,s6,0x24
C:\Users\RampantVelcro\Desktop\Class\Fall2018\ECE540\ECE540FinalProject\Source\software\final_software_1/main.S:136
8000026c:	8e900000 	lw	s0,0(s4)
C:\Users\RampantVelcro\Desktop\Class\Fall2018\ECE540\ECE540FinalProject\Source\software\final_software_1/main.S:137
80000270:	8eb10000 	lw	s1,0(s5)
C:\Users\RampantVelcro\Desktop\Class\Fall2018\ECE540\ECE540FinalProject\Source\software\final_software_1/main.S:138
80000274:	8ed20000 	lw	s2,0(s6)
C:\Users\RampantVelcro\Desktop\Class\Fall2018\ECE540\ECE540FinalProject\Source\software\final_software_1/main.S:141
80000278:	20170000 	addi	s7,zero,0
C:\Users\RampantVelcro\Desktop\Class\Fall2018\ECE540\ECE540FinalProject\Source\software\final_software_1/main.S:142
8000027c:	3c0abf80 	lui	t2,0xbf80
C:\Users\RampantVelcro\Desktop\Class\Fall2018\ECE540\ECE540FinalProject\Source\software\final_software_1/main.S:143
80000280:	a5570000 	sh	s7,0(t2)

80000284 <MAINLOOP>:
C:\Users\RampantVelcro\Desktop\Class\Fall2018\ECE540\ECE540FinalProject\Source\software\final_software_1/main.S:149
80000284:	3c0bbf80 	lui	t3,0xbf80
80000288:	356b000c 	ori	t3,t3,0xc
C:\Users\RampantVelcro\Desktop\Class\Fall2018\ECE540\ECE540FinalProject\Source\software\final_software_1/main.S:150
8000028c:	8d6b0000 	lw	t3,0(t3)
C:\Users\RampantVelcro\Desktop\Class\Fall2018\ECE540\ECE540FinalProject\Source\software\final_software_1/main.S:151
80000290:	31750010 	andi	s5,t3,0x10
C:\Users\RampantVelcro\Desktop\Class\Fall2018\ECE540\ECE540FinalProject\Source\software\final_software_1/main.S:152
80000294:	21760020 	addi	s6,t3,32
C:\Users\RampantVelcro\Desktop\Class\Fall2018\ECE540\ECE540FinalProject\Source\software\final_software_1/main.S:153
80000298:	21770008 	addi	s7,t3,8
C:\Users\RampantVelcro\Desktop\Class\Fall2018\ECE540\ECE540FinalProject\Source\software\final_software_1/main.S:154
8000029c:	3c0bbf80 	lui	t3,0xbf80
800002a0:	356b0004 	ori	t3,t3,0x4
C:\Users\RampantVelcro\Desktop\Class\Fall2018\ECE540\ECE540FinalProject\Source\software\final_software_1/main.S:155
800002a4:	8d6b0000 	lw	t3,0(t3)
C:\Users\RampantVelcro\Desktop\Class\Fall2018\ECE540\ECE540FinalProject\Source\software\final_software_1/main.S:156
800002a8:	31780001 	andi	t8,t3,0x1
C:\Users\RampantVelcro\Desktop\Class\Fall2018\ECE540\ECE540FinalProject\Source\software\final_software_1/main.S:160
800002ac:	240a0032 	li	t2,50
C:\Users\RampantVelcro\Desktop\Class\Fall2018\ECE540\ECE540FinalProject\Source\software\final_software_1/main.S:162
800002b0:	8e8c0000 	lw	t4,0(s4)
C:\Users\RampantVelcro\Desktop\Class\Fall2018\ECE540\ECE540FinalProject\Source\software\final_software_1/main.S:164
800002b4:	0c0001ef 	jal	800007bc <LT_TEMP_MINUS_TOLERANCE>
800002b8:	00103820 	add	a3,zero,s0
C:\Users\RampantVelcro\Desktop\Class\Fall2018\ECE540\ECE540FinalProject\Source\software\final_software_1/main.S:165
800002bc:	00078020 	add	s0,zero,a3
C:\Users\RampantVelcro\Desktop\Class\Fall2018\ECE540\ECE540FinalProject\Source\software\final_software_1/main.S:168
800002c0:	8eac0000 	lw	t4,0(s5)
C:\Users\RampantVelcro\Desktop\Class\Fall2018\ECE540\ECE540FinalProject\Source\software\final_software_1/main.S:170
800002c4:	0c0001ef 	jal	800007bc <LT_TEMP_MINUS_TOLERANCE>
800002c8:	00113820 	add	a3,zero,s1
C:\Users\RampantVelcro\Desktop\Class\Fall2018\ECE540\ECE540FinalProject\Source\software\final_software_1/main.S:171
800002cc:	00078820 	add	s1,zero,a3
C:\Users\RampantVelcro\Desktop\Class\Fall2018\ECE540\ECE540FinalProject\Source\software\final_software_1/main.S:174
800002d0:	8ecc0000 	lw	t4,0(s6)
C:\Users\RampantVelcro\Desktop\Class\Fall2018\ECE540\ECE540FinalProject\Source\software\final_software_1/main.S:176
800002d4:	0c0001ef 	jal	800007bc <LT_TEMP_MINUS_TOLERANCE>
800002d8:	00123820 	add	a3,zero,s2
C:\Users\RampantVelcro\Desktop\Class\Fall2018\ECE540\ECE540FinalProject\Source\software\final_software_1/main.S:181
800002dc:	13000024 	beqz	t8,80000370 <MAINGAMELOOP>
800002e0:	00079020 	add	s2,zero,a3
C:\Users\RampantVelcro\Desktop\Class\Fall2018\ECE540\ECE540FinalProject\Source\software\final_software_1/main.S:182
800002e4:	080000bb 	j	800002ec <DEBUGLOOP>
800002e8:	00000000 	nop

800002ec <DEBUGLOOP>:
C:\Users\RampantVelcro\Desktop\Class\Fall2018\ECE540\ECE540FinalProject\Source\software\final_software_1/main.S:185
800002ec:	3c0bbf80 	lui	t3,0xbf80
800002f0:	356b0018 	ori	t3,t3,0x18
C:\Users\RampantVelcro\Desktop\Class\Fall2018\ECE540\ECE540FinalProject\Source\software\final_software_1/main.S:186
800002f4:	240a0000 	li	t2,0
C:\Users\RampantVelcro\Desktop\Class\Fall2018\ECE540\ECE540FinalProject\Source\software\final_software_1/main.S:189
800002f8:	16e00019 	bnez	s7,80000360 <DEBUGSOFTRESET>
800002fc:	ad6a0000 	sw	t2,0(t3)
C:\Users\RampantVelcro\Desktop\Class\Fall2018\ECE540\ECE540FinalProject\Source\software\final_software_1/main.S:190
80000300:	080000c2 	j	80000308 <DEBUG_MAIN_LOGIC>
80000304:	00000000 	nop

80000308 <DEBUG_MAIN_LOGIC>:
C:\Users\RampantVelcro\Desktop\Class\Fall2018\ECE540\ECE540FinalProject\Source\software\final_software_1/main.S:197
80000308:	200c0001 	addi	t4,zero,1
C:\Users\RampantVelcro\Desktop\Class\Fall2018\ECE540\ECE540FinalProject\Source\software\final_software_1/main.S:198
8000030c:	200700fe 	addi	a3,zero,254
C:\Users\RampantVelcro\Desktop\Class\Fall2018\ECE540\ECE540FinalProject\Source\software\final_software_1/main.S:200
80000310:	0c0001fc 	jal	800007f0 <LED_FUNCITON>
80000314:	00104020 	add	t0,zero,s0
C:\Users\RampantVelcro\Desktop\Class\Fall2018\ECE540\ECE540FinalProject\Source\software\final_software_1/main.S:203
80000318:	200c0002 	addi	t4,zero,2
C:\Users\RampantVelcro\Desktop\Class\Fall2018\ECE540\ECE540FinalProject\Source\software\final_software_1/main.S:204
8000031c:	200700fd 	addi	a3,zero,253
C:\Users\RampantVelcro\Desktop\Class\Fall2018\ECE540\ECE540FinalProject\Source\software\final_software_1/main.S:206
80000320:	0c0001fc 	jal	800007f0 <LED_FUNCITON>
80000324:	00114020 	add	t0,zero,s1
C:\Users\RampantVelcro\Desktop\Class\Fall2018\ECE540\ECE540FinalProject\Source\software\final_software_1/main.S:209
80000328:	200c0004 	addi	t4,zero,4
C:\Users\RampantVelcro\Desktop\Class\Fall2018\ECE540\ECE540FinalProject\Source\software\final_software_1/main.S:210
8000032c:	200700fb 	addi	a3,zero,251
C:\Users\RampantVelcro\Desktop\Class\Fall2018\ECE540\ECE540FinalProject\Source\software\final_software_1/main.S:212
80000330:	0c0001fc 	jal	800007f0 <LED_FUNCITON>
80000334:	00124020 	add	t0,zero,s2
C:\Users\RampantVelcro\Desktop\Class\Fall2018\ECE540\ECE540FinalProject\Source\software\final_software_1/main.S:215
80000338:	3c0cbf70 	lui	t4,0xbf70
8000033c:	358c0008 	ori	t4,t4,0x8
C:\Users\RampantVelcro\Desktop\Class\Fall2018\ECE540\ECE540FinalProject\Source\software\final_software_1/main.S:217
80000340:	0c000209 	jal	80000824 <BCD_FUNCTION>
80000344:	00103820 	add	a3,zero,s0
C:\Users\RampantVelcro\Desktop\Class\Fall2018\ECE540\ECE540FinalProject\Source\software\final_software_1/main.S:220
80000348:	3c0cbf70 	lui	t4,0xbf70
8000034c:	358c0004 	ori	t4,t4,0x4
C:\Users\RampantVelcro\Desktop\Class\Fall2018\ECE540\ECE540FinalProject\Source\software\final_software_1/main.S:222
80000350:	0c000209 	jal	80000824 <BCD_FUNCTION>
80000354:	00113820 	add	a3,zero,s1
C:\Users\RampantVelcro\Desktop\Class\Fall2018\ECE540\ECE540FinalProject\Source\software\final_software_1/main.S:226
80000358:	08000172 	j	800005c8 <BOTHMODESLOGIC>
8000035c:	00000000 	nop

80000360 <DEBUGSOFTRESET>:
C:\Users\RampantVelcro\Desktop\Class\Fall2018\ECE540\ECE540FinalProject\Source\software\final_software_1/main.S:229
80000360:	0c000149 	jal	80000524 <SOFTRESET>
80000364:	00000000 	nop
C:\Users\RampantVelcro\Desktop\Class\Fall2018\ECE540\ECE540FinalProject\Source\software\final_software_1/main.S:230
80000368:	080000a1 	j	80000284 <MAINLOOP>
8000036c:	00000000 	nop

80000370 <MAINGAMELOOP>:
C:\Users\RampantVelcro\Desktop\Class\Fall2018\ECE540\ECE540FinalProject\Source\software\final_software_1/main.S:233
80000370:	3c0bbf80 	lui	t3,0xbf80
80000374:	356b0018 	ori	t3,t3,0x18
C:\Users\RampantVelcro\Desktop\Class\Fall2018\ECE540\ECE540FinalProject\Source\software\final_software_1/main.S:234
80000378:	8d790000 	lw	t9,0(t3)
C:\Users\RampantVelcro\Desktop\Class\Fall2018\ECE540\ECE540FinalProject\Source\software\final_software_1/main.S:235
8000037c:	3c0bbf80 	lui	t3,0xbf80
80000380:	356b0008 	ori	t3,t3,0x8
C:\Users\RampantVelcro\Desktop\Class\Fall2018\ECE540\ECE540FinalProject\Source\software\final_software_1/main.S:236
80000384:	8d6b0000 	lw	t3,0(t3)
C:\Users\RampantVelcro\Desktop\Class\Fall2018\ECE540\ECE540FinalProject\Source\software\final_software_1/main.S:238
80000388:	16e00003 	bnez	s7,80000398 <WALLHIT>
8000038c:	31690010 	andi	t1,t3,0x10
C:\Users\RampantVelcro\Desktop\Class\Fall2018\ECE540\ECE540FinalProject\Source\software\final_software_1/main.S:239
80000390:	0800016c 	j	800005b0 <MAINGAMELOGIC>
80000394:	00000000 	nop

80000398 <WALLHIT>:
C:\Users\RampantVelcro\Desktop\Class\Fall2018\ECE540\ECE540FinalProject\Source\software\final_software_1/main.S:242
80000398:	16a00005 	bnez	s5,800003b0 <IFWALLHIT>
8000039c:	00000000 	nop
C:\Users\RampantVelcro\Desktop\Class\Fall2018\ECE540\ECE540FinalProject\Source\software\final_software_1/main.S:243
800003a0:	12c00009 	beqz	s6,800003c8 <IFLEVELWIN>
800003a4:	00000000 	nop
C:\Users\RampantVelcro\Desktop\Class\Fall2018\ECE540\ECE540FinalProject\Source\software\final_software_1/main.S:244
800003a8:	080000f2 	j	800003c8 <IFLEVELWIN>
800003ac:	00000000 	nop

800003b0 <IFWALLHIT>:
C:\Users\RampantVelcro\Desktop\Class\Fall2018\ECE540\ECE540FinalProject\Source\software\final_software_1/main.S:247
800003b0:	0c000150 	jal	80000540 <CLEAR_7SEG>
800003b4:	00000000 	nop
C:\Users\RampantVelcro\Desktop\Class\Fall2018\ECE540\ECE540FinalProject\Source\software\final_software_1/main.S:248
800003b8:	0c0000f8 	jal	800003e0 <LOSS_LOGIC>
800003bc:	00000000 	nop
C:\Users\RampantVelcro\Desktop\Class\Fall2018\ECE540\ECE540FinalProject\Source\software\final_software_1/main.S:249
800003c0:	080000a1 	j	80000284 <MAINLOOP>
800003c4:	00000000 	nop

800003c8 <IFLEVELWIN>:
C:\Users\RampantVelcro\Desktop\Class\Fall2018\ECE540\ECE540FinalProject\Source\software\final_software_1/main.S:252
800003c8:	0c000150 	jal	80000540 <CLEAR_7SEG>
800003cc:	00000000 	nop
C:\Users\RampantVelcro\Desktop\Class\Fall2018\ECE540\ECE540FinalProject\Source\software\final_software_1/main.S:253
800003d0:	0c000120 	jal	80000480 <DISPLAYWIN>
800003d4:	00000000 	nop
C:\Users\RampantVelcro\Desktop\Class\Fall2018\ECE540\ECE540FinalProject\Source\software\final_software_1/main.S:254
800003d8:	080000a1 	j	80000284 <MAINLOOP>
800003dc:	00000000 	nop

800003e0 <LOSS_LOGIC>:
C:\Users\RampantVelcro\Desktop\Class\Fall2018\ECE540\ECE540FinalProject\Source\software\final_software_1/main.S:281
800003e0:	12800015 	beqz	s4,80000438 <DISPLAYGAMEOVER>
800003e4:	03e05020 	add	t2,ra,zero
C:\Users\RampantVelcro\Desktop\Class\Fall2018\ECE540\ECE540FinalProject\Source\software\final_software_1/main.S:282
800003e8:	080000fc 	j	800003f0 <LOSSWAIT>
800003ec:	00000000 	nop

800003f0 <LOSSWAIT>:
C:\Users\RampantVelcro\Desktop\Class\Fall2018\ECE540\ECE540FinalProject\Source\software\final_software_1/main.S:285
800003f0:	15200003 	bnez	t1,80000400 <LOSS_RESET>
800003f4:	00000000 	nop
C:\Users\RampantVelcro\Desktop\Class\Fall2018\ECE540\ECE540FinalProject\Source\software\final_software_1/main.S:286
800003f8:	08000113 	j	8000044c <LOSSEND>
800003fc:	00000000 	nop

80000400 <LOSS_RESET>:
C:\Users\RampantVelcro\Desktop\Class\Fall2018\ECE540\ECE540FinalProject\Source\software\final_software_1/main.S:289
80000400:	0c000115 	jal	80000454 <LOSS_SETLIVES>
80000404:	00000000 	nop
C:\Users\RampantVelcro\Desktop\Class\Fall2018\ECE540\ECE540FinalProject\Source\software\final_software_1/main.S:290
80000408:	0c000149 	jal	80000524 <SOFTRESET>
8000040c:	00000000 	nop
C:\Users\RampantVelcro\Desktop\Class\Fall2018\ECE540\ECE540FinalProject\Source\software\final_software_1/main.S:291
80000410:	240b0000 	li	t3,0
C:\Users\RampantVelcro\Desktop\Class\Fall2018\ECE540\ECE540FinalProject\Source\software\final_software_1/main.S:292
80000414:	132b0003 	beq	t9,t3,80000424 <LOSS_GAMEOVER>
80000418:	00000000 	nop
C:\Users\RampantVelcro\Desktop\Class\Fall2018\ECE540\ECE540FinalProject\Source\software\final_software_1/main.S:293
8000041c:	08000113 	j	8000044c <LOSSEND>
80000420:	00000000 	nop

80000424 <LOSS_GAMEOVER>:
C:\Users\RampantVelcro\Desktop\Class\Fall2018\ECE540\ECE540FinalProject\Source\software\final_software_1/main.S:296
80000424:	24130003 	li	s3,3
C:\Users\RampantVelcro\Desktop\Class\Fall2018\ECE540\ECE540FinalProject\Source\software\final_software_1/main.S:297
80000428:	3c0bbf80 	lui	t3,0xbf80
8000042c:	356b0018 	ori	t3,t3,0x18
C:\Users\RampantVelcro\Desktop\Class\Fall2018\ECE540\ECE540FinalProject\Source\software\final_software_1/main.S:299
80000430:	08000113 	j	8000044c <LOSSEND>
80000434:	ad730000 	sw	s3,0(t3)

80000438 <DISPLAYGAMEOVER>:
C:\Users\RampantVelcro\Desktop\Class\Fall2018\ECE540\ECE540FinalProject\Source\software\final_software_1/main.S:302
80000438:	240b0000 	li	t3,0
C:\Users\RampantVelcro\Desktop\Class\Fall2018\ECE540\ECE540FinalProject\Source\software\final_software_1/main.S:303
8000043c:	3c0cbf80 	lui	t4,0xbf80
80000440:	358c0018 	ori	t4,t4,0x18
C:\Users\RampantVelcro\Desktop\Class\Fall2018\ECE540\ECE540FinalProject\Source\software\final_software_1/main.S:305
80000444:	080000fc 	j	800003f0 <LOSSWAIT>
80000448:	ad8b0000 	sw	t3,0(t4)

8000044c <LOSSEND>:
C:\Users\RampantVelcro\Desktop\Class\Fall2018\ECE540\ECE540FinalProject\Source\software\final_software_1/main.S:308
8000044c:	01400008 	jr	t2
80000450:	00000000 	nop

80000454 <LOSS_SETLIVES>:
C:\Users\RampantVelcro\Desktop\Class\Fall2018\ECE540\ECE540FinalProject\Source\software\final_software_1/main.S:314
80000454:	12800003 	beqz	s4,80000464 <RESETLIVES>
80000458:	00000000 	nop
C:\Users\RampantVelcro\Desktop\Class\Fall2018\ECE540\ECE540FinalProject\Source\software\final_software_1/main.S:315
8000045c:	0800011b 	j	8000046c <DECLIVES>
80000460:	00000000 	nop

80000464 <RESETLIVES>:
C:\Users\RampantVelcro\Desktop\Class\Fall2018\ECE540\ECE540FinalProject\Source\software\final_software_1/main.S:319
80000464:	0800011e 	j	80000478 <LOSS_SETLIVES_END>
80000468:	24140003 	li	s4,3

8000046c <DECLIVES>:
C:\Users\RampantVelcro\Desktop\Class\Fall2018\ECE540\ECE540FinalProject\Source\software\final_software_1/main.S:322
8000046c:	240b0001 	li	t3,1
C:\Users\RampantVelcro\Desktop\Class\Fall2018\ECE540\ECE540FinalProject\Source\software\final_software_1/main.S:324
80000470:	0800011e 	j	80000478 <LOSS_SETLIVES_END>
80000474:	028ba022 	sub	s4,s4,t3

80000478 <LOSS_SETLIVES_END>:
C:\Users\RampantVelcro\Desktop\Class\Fall2018\ECE540\ECE540FinalProject\Source\software\final_software_1/main.S:327
80000478:	03e00008 	jr	ra
8000047c:	00000000 	nop

80000480 <DISPLAYWIN>:
C:\Users\RampantVelcro\Desktop\Class\Fall2018\ECE540\ECE540FinalProject\Source\software\final_software_1/main.S:333
80000480:	24140003 	li	s4,3
C:\Users\RampantVelcro\Desktop\Class\Fall2018\ECE540\ECE540FinalProject\Source\software\final_software_1/main.S:334
80000484:	001f5020 	add	t2,zero,ra
C:\Users\RampantVelcro\Desktop\Class\Fall2018\ECE540\ECE540FinalProject\Source\software\final_software_1/main.S:335
80000488:	240b0001 	li	t3,1
C:\Users\RampantVelcro\Desktop\Class\Fall2018\ECE540\ECE540FinalProject\Source\software\final_software_1/main.S:336
8000048c:	172b0003 	bne	t9,t3,8000049c <GAMEWINCHECK>
80000490:	00000000 	nop
C:\Users\RampantVelcro\Desktop\Class\Fall2018\ECE540\ECE540FinalProject\Source\software\final_software_1/main.S:337
80000494:	0800013d 	j	800004f4 <DISPLAYING_GAME_WIN>
80000498:	00000000 	nop

8000049c <GAMEWINCHECK>:
C:\Users\RampantVelcro\Desktop\Class\Fall2018\ECE540\ECE540FinalProject\Source\software\final_software_1/main.S:340
8000049c:	240b0002 	li	t3,2
C:\Users\RampantVelcro\Desktop\Class\Fall2018\ECE540\ECE540FinalProject\Source\software\final_software_1/main.S:341
800004a0:	172b0003 	bne	t9,t3,800004b0 <NOT_DISPLAYING_GAME_WIN>
800004a4:	00000000 	nop
C:\Users\RampantVelcro\Desktop\Class\Fall2018\ECE540\ECE540FinalProject\Source\software\final_software_1/main.S:342
800004a8:	0800013d 	j	800004f4 <DISPLAYING_GAME_WIN>
800004ac:	00000000 	nop

800004b0 <NOT_DISPLAYING_GAME_WIN>:
C:\Users\RampantVelcro\Desktop\Class\Fall2018\ECE540\ECE540FinalProject\Source\software\final_software_1/main.S:345
800004b0:	240b0005 	li	t3,5
C:\Users\RampantVelcro\Desktop\Class\Fall2018\ECE540\ECE540FinalProject\Source\software\final_software_1/main.S:346
800004b4:	126b0003 	beq	s3,t3,800004c4 <DISPLAYGAMEWIN>
800004b8:	00000000 	nop
C:\Users\RampantVelcro\Desktop\Class\Fall2018\ECE540\ECE540FinalProject\Source\software\final_software_1/main.S:347
800004bc:	08000137 	j	800004dc <DISPLAYLEVELWIN>
800004c0:	00000000 	nop

800004c4 <DISPLAYGAMEWIN>:
C:\Users\RampantVelcro\Desktop\Class\Fall2018\ECE540\ECE540FinalProject\Source\software\final_software_1/main.S:350
800004c4:	24130003 	li	s3,3
C:\Users\RampantVelcro\Desktop\Class\Fall2018\ECE540\ECE540FinalProject\Source\software\final_software_1/main.S:351
800004c8:	240b0001 	li	t3,1
C:\Users\RampantVelcro\Desktop\Class\Fall2018\ECE540\ECE540FinalProject\Source\software\final_software_1/main.S:352
800004cc:	3c0cbf80 	lui	t4,0xbf80
800004d0:	358c0018 	ori	t4,t4,0x18
C:\Users\RampantVelcro\Desktop\Class\Fall2018\ECE540\ECE540FinalProject\Source\software\final_software_1/main.S:354
800004d4:	08000147 	j	8000051c <GAMEWINEND>
800004d8:	ad8b0000 	sw	t3,0(t4)

800004dc <DISPLAYLEVELWIN>:
C:\Users\RampantVelcro\Desktop\Class\Fall2018\ECE540\ECE540FinalProject\Source\software\final_software_1/main.S:357
800004dc:	22730001 	addi	s3,s3,1
C:\Users\RampantVelcro\Desktop\Class\Fall2018\ECE540\ECE540FinalProject\Source\software\final_software_1/main.S:358
800004e0:	240b0002 	li	t3,2
C:\Users\RampantVelcro\Desktop\Class\Fall2018\ECE540\ECE540FinalProject\Source\software\final_software_1/main.S:359
800004e4:	3c0cbf80 	lui	t4,0xbf80
800004e8:	358c0018 	ori	t4,t4,0x18
C:\Users\RampantVelcro\Desktop\Class\Fall2018\ECE540\ECE540FinalProject\Source\software\final_software_1/main.S:361
800004ec:	08000147 	j	8000051c <GAMEWINEND>
800004f0:	ad8b0000 	sw	t3,0(t4)

800004f4 <DISPLAYING_GAME_WIN>:
C:\Users\RampantVelcro\Desktop\Class\Fall2018\ECE540\ECE540FinalProject\Source\software\final_software_1/main.S:364
800004f4:	15200003 	bnez	t1,80000504 <GAMEWINENTER>
800004f8:	00000000 	nop
C:\Users\RampantVelcro\Desktop\Class\Fall2018\ECE540\ECE540FinalProject\Source\software\final_software_1/main.S:365
800004fc:	08000147 	j	8000051c <GAMEWINEND>
80000500:	00000000 	nop

80000504 <GAMEWINENTER>:
C:\Users\RampantVelcro\Desktop\Class\Fall2018\ECE540\ECE540FinalProject\Source\software\final_software_1/main.S:368
80000504:	3c0bbf80 	lui	t3,0xbf80
80000508:	356b0018 	ori	t3,t3,0x18
C:\Users\RampantVelcro\Desktop\Class\Fall2018\ECE540\ECE540FinalProject\Source\software\final_software_1/main.S:370
8000050c:	0c000149 	jal	80000524 <SOFTRESET>
80000510:	ad730000 	sw	s3,0(t3)
C:\Users\RampantVelcro\Desktop\Class\Fall2018\ECE540\ECE540FinalProject\Source\software\final_software_1/main.S:371
80000514:	08000147 	j	8000051c <GAMEWINEND>
80000518:	00000000 	nop

8000051c <GAMEWINEND>:
C:\Users\RampantVelcro\Desktop\Class\Fall2018\ECE540\ECE540FinalProject\Source\software\final_software_1/main.S:374
8000051c:	01400008 	jr	t2
80000520:	00000000 	nop

80000524 <SOFTRESET>:
C:\Users\RampantVelcro\Desktop\Class\Fall2018\ECE540\ECE540FinalProject\Source\software\final_software_1/main.S:380
80000524:	240b0000 	li	t3,0
C:\Users\RampantVelcro\Desktop\Class\Fall2018\ECE540\ECE540FinalProject\Source\software\final_software_1/main.S:381
80000528:	3c0abf80 	lui	t2,0xbf80
8000052c:	354a0010 	ori	t2,t2,0x10
C:\Users\RampantVelcro\Desktop\Class\Fall2018\ECE540\ECE540FinalProject\Source\software\final_software_1/main.S:382
80000530:	ad4b0000 	sw	t3,0(t2)
C:\Users\RampantVelcro\Desktop\Class\Fall2018\ECE540\ECE540FinalProject\Source\software\final_software_1/main.S:383
80000534:	240b0001 	li	t3,1
C:\Users\RampantVelcro\Desktop\Class\Fall2018\ECE540\ECE540FinalProject\Source\software\final_software_1/main.S:385
80000538:	03e00008 	jr	ra
8000053c:	ad4b0000 	sw	t3,0(t2)

80000540 <CLEAR_7SEG>:
C:\Users\RampantVelcro\Desktop\Class\Fall2018\ECE540\ECE540FinalProject\Source\software\final_software_1/main.S:391
80000540:	200a000c 	addi	t2,zero,12
C:\Users\RampantVelcro\Desktop\Class\Fall2018\ECE540\ECE540FinalProject\Source\software\final_software_1/main.S:392
80000544:	3c0b1c1c 	lui	t3,0x1c1c
80000548:	356b1c00 	ori	t3,t3,0x1c00
C:\Users\RampantVelcro\Desktop\Class\Fall2018\ECE540\ECE540FinalProject\Source\software\final_software_1/main.S:393
8000054c:	016a5020 	add	t2,t3,t2
C:\Users\RampantVelcro\Desktop\Class\Fall2018\ECE540\ECE540FinalProject\Source\software\final_software_1/main.S:394
80000550:	3c0bbf70 	lui	t3,0xbf70
80000554:	356b0008 	ori	t3,t3,0x8
C:\Users\RampantVelcro\Desktop\Class\Fall2018\ECE540\ECE540FinalProject\Source\software\final_software_1/main.S:395
80000558:	ad6a0000 	sw	t2,0(t3)
C:\Users\RampantVelcro\Desktop\Class\Fall2018\ECE540\ECE540FinalProject\Source\software\final_software_1/main.S:396
8000055c:	3c0bbf70 	lui	t3,0xbf70
80000560:	356b0004 	ori	t3,t3,0x4
C:\Users\RampantVelcro\Desktop\Class\Fall2018\ECE540\ECE540FinalProject\Source\software\final_software_1/main.S:397
80000564:	3c0a1c1c 	lui	t2,0x1c1c
80000568:	354a1c0c 	ori	t2,t2,0x1c0c
C:\Users\RampantVelcro\Desktop\Class\Fall2018\ECE540\ECE540FinalProject\Source\software\final_software_1/main.S:399
8000056c:	03e00008 	jr	ra
80000570:	ad6a0000 	sw	t2,0(t3)

80000574 <DISPLAY_LIVES_7SEG>:
C:\Users\RampantVelcro\Desktop\Class\Fall2018\ECE540\ECE540FinalProject\Source\software\final_software_1/main.S:405
80000574:	226a0000 	addi	t2,s3,0
C:\Users\RampantVelcro\Desktop\Class\Fall2018\ECE540\ECE540FinalProject\Source\software\final_software_1/main.S:406
80000578:	3c0b1c1c 	lui	t3,0x1c1c
8000057c:	356b1c00 	ori	t3,t3,0x1c00
C:\Users\RampantVelcro\Desktop\Class\Fall2018\ECE540\ECE540FinalProject\Source\software\final_software_1/main.S:407
80000580:	016a5020 	add	t2,t3,t2
C:\Users\RampantVelcro\Desktop\Class\Fall2018\ECE540\ECE540FinalProject\Source\software\final_software_1/main.S:408
80000584:	3c0bbf70 	lui	t3,0xbf70
80000588:	356b0008 	ori	t3,t3,0x8
C:\Users\RampantVelcro\Desktop\Class\Fall2018\ECE540\ECE540FinalProject\Source\software\final_software_1/main.S:409
8000058c:	ad6a0000 	sw	t2,0(t3)
C:\Users\RampantVelcro\Desktop\Class\Fall2018\ECE540\ECE540FinalProject\Source\software\final_software_1/main.S:411
80000590:	228a0000 	addi	t2,s4,0
C:\Users\RampantVelcro\Desktop\Class\Fall2018\ECE540\ECE540FinalProject\Source\software\final_software_1/main.S:412
80000594:	3c0b1c1c 	lui	t3,0x1c1c
80000598:	356b1c00 	ori	t3,t3,0x1c00
C:\Users\RampantVelcro\Desktop\Class\Fall2018\ECE540\ECE540FinalProject\Source\software\final_software_1/main.S:413
8000059c:	016a5020 	add	t2,t3,t2
C:\Users\RampantVelcro\Desktop\Class\Fall2018\ECE540\ECE540FinalProject\Source\software\final_software_1/main.S:414
800005a0:	3c0bbf70 	lui	t3,0xbf70
800005a4:	356b0004 	ori	t3,t3,0x4
C:\Users\RampantVelcro\Desktop\Class\Fall2018\ECE540\ECE540FinalProject\Source\software\final_software_1/main.S:417
800005a8:	03e00008 	jr	ra
800005ac:	ad6a0000 	sw	t2,0(t3)

800005b0 <MAINGAMELOGIC>:
C:\Users\RampantVelcro\Desktop\Class\Fall2018\ECE540\ECE540FinalProject\Source\software\final_software_1/main.S:423
800005b0:	3c0bbf80 	lui	t3,0xbf80
800005b4:	356b0018 	ori	t3,t3,0x18
C:\Users\RampantVelcro\Desktop\Class\Fall2018\ECE540\ECE540FinalProject\Source\software\final_software_1/main.S:426
800005b8:	0c00015d 	jal	80000574 <DISPLAY_LIVES_7SEG>
800005bc:	ad730000 	sw	s3,0(t3)
C:\Users\RampantVelcro\Desktop\Class\Fall2018\ECE540\ECE540FinalProject\Source\software\final_software_1/main.S:428
800005c0:	08000172 	j	800005c8 <BOTHMODESLOGIC>
800005c4:	00000000 	nop

800005c8 <BOTHMODESLOGIC>:
C:\Users\RampantVelcro\Desktop\Class\Fall2018\ECE540\ECE540FinalProject\Source\software\final_software_1/main.S:437
800005c8:	320e0800 	andi	t6,s0,0x800
C:\Users\RampantVelcro\Desktop\Class\Fall2018\ECE540\ECE540FinalProject\Source\software\final_software_1/main.S:438
800005cc:	322f0800 	andi	t7,s1,0x800
C:\Users\RampantVelcro\Desktop\Class\Fall2018\ECE540\ECE540FinalProject\Source\software\final_software_1/main.S:441
800005d0:	00103820 	add	a3,zero,s0
C:\Users\RampantVelcro\Desktop\Class\Fall2018\ECE540\ECE540FinalProject\Source\software\final_software_1/main.S:443
800005d4:	15c00005 	bnez	t6,800005ec <CALCULATE_TWOS_COMPLEMENT_X>
800005d8:	00114020 	add	t0,zero,s1
C:\Users\RampantVelcro\Desktop\Class\Fall2018\ECE540\ECE540FinalProject\Source\software\final_software_1/main.S:444
800005dc:	15e00009 	bnez	t7,80000604 <CALCULATE_TWOS_COMPLEMENT_Y>
800005e0:	00000000 	nop
C:\Users\RampantVelcro\Desktop\Class\Fall2018\ECE540\ECE540FinalProject\Source\software\final_software_1/main.S:445
800005e4:	08000184 	j	80000610 <POST_TWO_COMPLEMENT_LOGIC>
800005e8:	00000000 	nop

800005ec <CALCULATE_TWOS_COMPLEMENT_X>:
C:\Users\RampantVelcro\Desktop\Class\Fall2018\ECE540\ECE540FinalProject\Source\software\final_software_1/main.S:449
800005ec:	0c000237 	jal	800008dc <TWOS_COMPLEMENT_FUNCTION>
800005f0:	00101020 	add	v0,zero,s0
C:\Users\RampantVelcro\Desktop\Class\Fall2018\ECE540\ECE540FinalProject\Source\software\final_software_1/main.S:451
800005f4:	15e00003 	bnez	t7,80000604 <CALCULATE_TWOS_COMPLEMENT_Y>
800005f8:	00023820 	add	a3,zero,v0
C:\Users\RampantVelcro\Desktop\Class\Fall2018\ECE540\ECE540FinalProject\Source\software\final_software_1/main.S:452
800005fc:	08000184 	j	80000610 <POST_TWO_COMPLEMENT_LOGIC>
80000600:	00000000 	nop

80000604 <CALCULATE_TWOS_COMPLEMENT_Y>:
C:\Users\RampantVelcro\Desktop\Class\Fall2018\ECE540\ECE540FinalProject\Source\software\final_software_1/main.S:456
80000604:	0c000237 	jal	800008dc <TWOS_COMPLEMENT_FUNCTION>
80000608:	00111020 	add	v0,zero,s1
C:\Users\RampantVelcro\Desktop\Class\Fall2018\ECE540\ECE540FinalProject\Source\software\final_software_1/main.S:457
8000060c:	00024020 	add	t0,zero,v0

80000610 <POST_TWO_COMPLEMENT_LOGIC>:
C:\Users\RampantVelcro\Desktop\Class\Fall2018\ECE540\ECE540FinalProject\Source\software\final_software_1/main.S:460
80000610:	200b012c 	addi	t3,zero,300
C:\Users\RampantVelcro\Desktop\Class\Fall2018\ECE540\ECE540FinalProject\Source\software\final_software_1/main.S:461
80000614:	00eb602a 	slt	t4,a3,t3
C:\Users\RampantVelcro\Desktop\Class\Fall2018\ECE540\ECE540FinalProject\Source\software\final_software_1/main.S:462
80000618:	11800006 	beqz	t4,80000634 <X_GT_300>
8000061c:	00000000 	nop
C:\Users\RampantVelcro\Desktop\Class\Fall2018\ECE540\ECE540FinalProject\Source\software\final_software_1/main.S:464
80000620:	010b602a 	slt	t4,t0,t3
C:\Users\RampantVelcro\Desktop\Class\Fall2018\ECE540\ECE540FinalProject\Source\software\final_software_1/main.S:465
80000624:	11800010 	beqz	t4,80000668 <Y_GT_300>
80000628:	00000000 	nop
C:\Users\RampantVelcro\Desktop\Class\Fall2018\ECE540\ECE540FinalProject\Source\software\final_software_1/main.S:468
8000062c:	080001b9 	j	800006e4 <END_OF_DIRECTION_LOGIC>
80000630:	240d0000 	li	t5,0

80000634 <X_GT_300>:
C:\Users\RampantVelcro\Desktop\Class\Fall2018\ECE540\ECE540FinalProject\Source\software\final_software_1/main.S:472
80000634:	010b602a 	slt	t4,t0,t3
C:\Users\RampantVelcro\Desktop\Class\Fall2018\ECE540\ECE540FinalProject\Source\software\final_software_1/main.S:473
80000638:	15800003 	bnez	t4,80000648 <X_GT_300_AND_Y_LT_300>
8000063c:	00000000 	nop
C:\Users\RampantVelcro\Desktop\Class\Fall2018\ECE540\ECE540FinalProject\Source\software\final_software_1/main.S:474
80000640:	080001a7 	j	8000069c <X_GT_300_AND_Y_GT_300>
80000644:	00000000 	nop

80000648 <X_GT_300_AND_Y_LT_300>:
C:\Users\RampantVelcro\Desktop\Class\Fall2018\ECE540\ECE540FinalProject\Source\software\final_software_1/main.S:477
80000648:	15c00003 	bnez	t6,80000658 <X_GT_300_AND_Y_LT_300_X_NEG>
8000064c:	00000000 	nop
C:\Users\RampantVelcro\Desktop\Class\Fall2018\ECE540\ECE540FinalProject\Source\software\final_software_1/main.S:478
80000650:	08000198 	j	80000660 <X_GT_300_AND_Y_LT_300_X_POS>
80000654:	00000000 	nop

80000658 <X_GT_300_AND_Y_LT_300_X_NEG>:
C:\Users\RampantVelcro\Desktop\Class\Fall2018\ECE540\ECE540FinalProject\Source\software\final_software_1/main.S:482
80000658:	080001b9 	j	800006e4 <END_OF_DIRECTION_LOGIC>
8000065c:	240d0000 	li	t5,0

80000660 <X_GT_300_AND_Y_LT_300_X_POS>:
C:\Users\RampantVelcro\Desktop\Class\Fall2018\ECE540\ECE540FinalProject\Source\software\final_software_1/main.S:486
80000660:	080001b9 	j	800006e4 <END_OF_DIRECTION_LOGIC>
80000664:	240d0004 	li	t5,4

80000668 <Y_GT_300>:
C:\Users\RampantVelcro\Desktop\Class\Fall2018\ECE540\ECE540FinalProject\Source\software\final_software_1/main.S:490
80000668:	00eb602a 	slt	t4,a3,t3
C:\Users\RampantVelcro\Desktop\Class\Fall2018\ECE540\ECE540FinalProject\Source\software\final_software_1/main.S:491
8000066c:	15800003 	bnez	t4,8000067c <X_LT_300_AND_Y_GT_300>
80000670:	00000000 	nop
C:\Users\RampantVelcro\Desktop\Class\Fall2018\ECE540\ECE540FinalProject\Source\software\final_software_1/main.S:492
80000674:	080001a7 	j	8000069c <X_GT_300_AND_Y_GT_300>
80000678:	00000000 	nop

8000067c <X_LT_300_AND_Y_GT_300>:
C:\Users\RampantVelcro\Desktop\Class\Fall2018\ECE540\ECE540FinalProject\Source\software\final_software_1/main.S:495
8000067c:	15e00003 	bnez	t7,8000068c <X_LT_300_AND_Y_GT_300_Y_NEG>
80000680:	00000000 	nop
C:\Users\RampantVelcro\Desktop\Class\Fall2018\ECE540\ECE540FinalProject\Source\software\final_software_1/main.S:496
80000684:	080001a5 	j	80000694 <X_LT_300_AND_Y_GT_300_Y_POS>
80000688:	00000000 	nop

8000068c <X_LT_300_AND_Y_GT_300_Y_NEG>:
C:\Users\RampantVelcro\Desktop\Class\Fall2018\ECE540\ECE540FinalProject\Source\software\final_software_1/main.S:500
8000068c:	080001b9 	j	800006e4 <END_OF_DIRECTION_LOGIC>
80000690:	240d0002 	li	t5,2

80000694 <X_LT_300_AND_Y_GT_300_Y_POS>:
C:\Users\RampantVelcro\Desktop\Class\Fall2018\ECE540\ECE540FinalProject\Source\software\final_software_1/main.S:504
80000694:	080001b9 	j	800006e4 <END_OF_DIRECTION_LOGIC>
80000698:	240d0006 	li	t5,6

8000069c <X_GT_300_AND_Y_GT_300>:
C:\Users\RampantVelcro\Desktop\Class\Fall2018\ECE540\ECE540FinalProject\Source\software\final_software_1/main.S:509
8000069c:	15c00007 	bnez	t6,800006bc <X_GT_300_AND_Y_GT_300_X_NEG>
800006a0:	240d0000 	li	t5,0
C:\Users\RampantVelcro\Desktop\Class\Fall2018\ECE540\ECE540FinalProject\Source\software\final_software_1/main.S:510
800006a4:	15e00009 	bnez	t7,800006cc <X_GT_300_AND_Y_GT_300_X_POS_Y_NEG>
800006a8:	00000000 	nop
C:\Users\RampantVelcro\Desktop\Class\Fall2018\ECE540\ECE540FinalProject\Source\software\final_software_1/main.S:511
800006ac:	080001b7 	j	800006dc <X_GT_300_AND_Y_GT_300_X_POS_AND_Y_POS>
800006b0:	00000000 	nop
C:\Users\RampantVelcro\Desktop\Class\Fall2018\ECE540\ECE540FinalProject\Source\software\final_software_1/main.S:512
800006b4:	080001b9 	j	800006e4 <END_OF_DIRECTION_LOGIC>
800006b8:	00000000 	nop

800006bc <X_GT_300_AND_Y_GT_300_X_NEG>:
C:\Users\RampantVelcro\Desktop\Class\Fall2018\ECE540\ECE540FinalProject\Source\software\final_software_1/main.S:515
800006bc:	15e00005 	bnez	t7,800006d4 <X_GT_300_AND_Y_GT_300_X_NEG_Y_NEG>
800006c0:	00000000 	nop
C:\Users\RampantVelcro\Desktop\Class\Fall2018\ECE540\ECE540FinalProject\Source\software\final_software_1/main.S:517
800006c4:	080001b9 	j	800006e4 <END_OF_DIRECTION_LOGIC>
800006c8:	240d0007 	li	t5,7

800006cc <X_GT_300_AND_Y_GT_300_X_POS_Y_NEG>:
C:\Users\RampantVelcro\Desktop\Class\Fall2018\ECE540\ECE540FinalProject\Source\software\final_software_1/main.S:521
800006cc:	080001b9 	j	800006e4 <END_OF_DIRECTION_LOGIC>
800006d0:	240d0003 	li	t5,3

800006d4 <X_GT_300_AND_Y_GT_300_X_NEG_Y_NEG>:
C:\Users\RampantVelcro\Desktop\Class\Fall2018\ECE540\ECE540FinalProject\Source\software\final_software_1/main.S:525
800006d4:	080001b9 	j	800006e4 <END_OF_DIRECTION_LOGIC>
800006d8:	240d0001 	li	t5,1

800006dc <X_GT_300_AND_Y_GT_300_X_POS_AND_Y_POS>:
C:\Users\RampantVelcro\Desktop\Class\Fall2018\ECE540\ECE540FinalProject\Source\software\final_software_1/main.S:529
800006dc:	080001b9 	j	800006e4 <END_OF_DIRECTION_LOGIC>
800006e0:	240d0005 	li	t5,5

800006e4 <END_OF_DIRECTION_LOGIC>:
C:\Users\RampantVelcro\Desktop\Class\Fall2018\ECE540\ECE540FinalProject\Source\software\final_software_1/main.S:536
800006e4:	24130000 	li	s3,0
C:\Users\RampantVelcro\Desktop\Class\Fall2018\ECE540\ECE540FinalProject\Source\software\final_software_1/main.S:537
800006e8:	241a0000 	li	k0,0

800006ec <CALC_X_SPEED>:
C:\Users\RampantVelcro\Desktop\Class\Fall2018\ECE540\ECE540FinalProject\Source\software\final_software_1/main.S:539
800006ec:	200b012c 	addi	t3,zero,300
C:\Users\RampantVelcro\Desktop\Class\Fall2018\ECE540\ECE540FinalProject\Source\software\final_software_1/main.S:540
800006f0:	00eb602a 	slt	t4,a3,t3
C:\Users\RampantVelcro\Desktop\Class\Fall2018\ECE540\ECE540FinalProject\Source\software\final_software_1/main.S:541
800006f4:	11800003 	beqz	t4,80000704 <X_SPEED_SLOW>
800006f8:	00000000 	nop
C:\Users\RampantVelcro\Desktop\Class\Fall2018\ECE540\ECE540FinalProject\Source\software\final_software_1/main.S:542
800006fc:	080001d1 	j	80000744 <CALC_Y_SPEED>
80000700:	00000000 	nop

80000704 <X_SPEED_SLOW>:
C:\Users\RampantVelcro\Desktop\Class\Fall2018\ECE540\ECE540FinalProject\Source\software\final_software_1/main.S:545
80000704:	24130001 	li	s3,1
C:\Users\RampantVelcro\Desktop\Class\Fall2018\ECE540\ECE540FinalProject\Source\software\final_software_1/main.S:546
80000708:	200b01f4 	addi	t3,zero,500
C:\Users\RampantVelcro\Desktop\Class\Fall2018\ECE540\ECE540FinalProject\Source\software\final_software_1/main.S:547
8000070c:	00eb602a 	slt	t4,a3,t3
C:\Users\RampantVelcro\Desktop\Class\Fall2018\ECE540\ECE540FinalProject\Source\software\final_software_1/main.S:548
80000710:	11800003 	beqz	t4,80000720 <X_SPEED_MEDIUM>
80000714:	00000000 	nop
C:\Users\RampantVelcro\Desktop\Class\Fall2018\ECE540\ECE540FinalProject\Source\software\final_software_1/main.S:549
80000718:	080001d1 	j	80000744 <CALC_Y_SPEED>
8000071c:	00000000 	nop

80000720 <X_SPEED_MEDIUM>:
C:\Users\RampantVelcro\Desktop\Class\Fall2018\ECE540\ECE540FinalProject\Source\software\final_software_1/main.S:552
80000720:	24130002 	li	s3,2
C:\Users\RampantVelcro\Desktop\Class\Fall2018\ECE540\ECE540FinalProject\Source\software\final_software_1/main.S:553
80000724:	200b02bc 	addi	t3,zero,700
C:\Users\RampantVelcro\Desktop\Class\Fall2018\ECE540\ECE540FinalProject\Source\software\final_software_1/main.S:554
80000728:	00eb602a 	slt	t4,a3,t3
C:\Users\RampantVelcro\Desktop\Class\Fall2018\ECE540\ECE540FinalProject\Source\software\final_software_1/main.S:555
8000072c:	11800003 	beqz	t4,8000073c <X_SPEED_FAST>
80000730:	00000000 	nop
C:\Users\RampantVelcro\Desktop\Class\Fall2018\ECE540\ECE540FinalProject\Source\software\final_software_1/main.S:556
80000734:	080001d1 	j	80000744 <CALC_Y_SPEED>
80000738:	00000000 	nop

8000073c <X_SPEED_FAST>:
C:\Users\RampantVelcro\Desktop\Class\Fall2018\ECE540\ECE540FinalProject\Source\software\final_software_1/main.S:560
8000073c:	080001d1 	j	80000744 <CALC_Y_SPEED>
80000740:	24130003 	li	s3,3

80000744 <CALC_Y_SPEED>:
C:\Users\RampantVelcro\Desktop\Class\Fall2018\ECE540\ECE540FinalProject\Source\software\final_software_1/main.S:563
80000744:	200b012c 	addi	t3,zero,300
C:\Users\RampantVelcro\Desktop\Class\Fall2018\ECE540\ECE540FinalProject\Source\software\final_software_1/main.S:564
80000748:	010b602a 	slt	t4,t0,t3
C:\Users\RampantVelcro\Desktop\Class\Fall2018\ECE540\ECE540FinalProject\Source\software\final_software_1/main.S:565
8000074c:	11800003 	beqz	t4,8000075c <Y_SPEED_SLOW>
80000750:	00000000 	nop
C:\Users\RampantVelcro\Desktop\Class\Fall2018\ECE540\ECE540FinalProject\Source\software\final_software_1/main.S:566
80000754:	080001e7 	j	8000079c <END_SPEED_LOGIC>
80000758:	00000000 	nop

8000075c <Y_SPEED_SLOW>:
C:\Users\RampantVelcro\Desktop\Class\Fall2018\ECE540\ECE540FinalProject\Source\software\final_software_1/main.S:569
8000075c:	241a0001 	li	k0,1
C:\Users\RampantVelcro\Desktop\Class\Fall2018\ECE540\ECE540FinalProject\Source\software\final_software_1/main.S:570
80000760:	200b01f4 	addi	t3,zero,500
C:\Users\RampantVelcro\Desktop\Class\Fall2018\ECE540\ECE540FinalProject\Source\software\final_software_1/main.S:571
80000764:	010b602a 	slt	t4,t0,t3
C:\Users\RampantVelcro\Desktop\Class\Fall2018\ECE540\ECE540FinalProject\Source\software\final_software_1/main.S:572
80000768:	11800003 	beqz	t4,80000778 <Y_SPEED_MEDIUM>
8000076c:	00000000 	nop
C:\Users\RampantVelcro\Desktop\Class\Fall2018\ECE540\ECE540FinalProject\Source\software\final_software_1/main.S:573
80000770:	080001e7 	j	8000079c <END_SPEED_LOGIC>
80000774:	00000000 	nop

80000778 <Y_SPEED_MEDIUM>:
C:\Users\RampantVelcro\Desktop\Class\Fall2018\ECE540\ECE540FinalProject\Source\software\final_software_1/main.S:576
80000778:	241a0002 	li	k0,2
C:\Users\RampantVelcro\Desktop\Class\Fall2018\ECE540\ECE540FinalProject\Source\software\final_software_1/main.S:577
8000077c:	200b02bc 	addi	t3,zero,700
C:\Users\RampantVelcro\Desktop\Class\Fall2018\ECE540\ECE540FinalProject\Source\software\final_software_1/main.S:578
80000780:	010b602a 	slt	t4,t0,t3
C:\Users\RampantVelcro\Desktop\Class\Fall2018\ECE540\ECE540FinalProject\Source\software\final_software_1/main.S:579
80000784:	11800003 	beqz	t4,80000794 <Y_SPEED_FAST>
80000788:	00000000 	nop
C:\Users\RampantVelcro\Desktop\Class\Fall2018\ECE540\ECE540FinalProject\Source\software\final_software_1/main.S:580
8000078c:	080001e7 	j	8000079c <END_SPEED_LOGIC>
80000790:	00000000 	nop

80000794 <Y_SPEED_FAST>:
C:\Users\RampantVelcro\Desktop\Class\Fall2018\ECE540\ECE540FinalProject\Source\software\final_software_1/main.S:584
80000794:	080001e7 	j	8000079c <END_SPEED_LOGIC>
80000798:	241a0003 	li	k0,3

8000079c <END_SPEED_LOGIC>:
C:\Users\RampantVelcro\Desktop\Class\Fall2018\ECE540\ECE540FinalProject\Source\software\final_software_1/main.S:590
8000079c:	00139980 	sll	s3,s3,0x6
C:\Users\RampantVelcro\Desktop\Class\Fall2018\ECE540\ECE540FinalProject\Source\software\final_software_1/main.S:591
800007a0:	001ad100 	sll	k0,k0,0x4
C:\Users\RampantVelcro\Desktop\Class\Fall2018\ECE540\ECE540FinalProject\Source\software\final_software_1/main.S:592
800007a4:	01b36825 	or	t5,t5,s3
C:\Users\RampantVelcro\Desktop\Class\Fall2018\ECE540\ECE540FinalProject\Source\software\final_software_1/main.S:593
800007a8:	01ba6825 	or	t5,t5,k0
C:\Users\RampantVelcro\Desktop\Class\Fall2018\ECE540\ECE540FinalProject\Source\software\final_software_1/main.S:594
800007ac:	3c0cbf80 	lui	t4,0xbf80
800007b0:	358c0014 	ori	t4,t4,0x14
C:\Users\RampantVelcro\Desktop\Class\Fall2018\ECE540\ECE540FinalProject\Source\software\final_software_1/main.S:597
800007b4:	080000a1 	j	80000284 <MAINLOOP>
800007b8:	ad8d0000 	sw	t5,0(t4)

800007bc <LT_TEMP_MINUS_TOLERANCE>:
C:\Users\RampantVelcro\Desktop\Class\Fall2018\ECE540\ECE540FinalProject\Source\software\final_software_1/main.S:611
800007bc:	00ea5822 	sub	t3,a3,t2
C:\Users\RampantVelcro\Desktop\Class\Fall2018\ECE540\ECE540FinalProject\Source\software\final_software_1/main.S:612
800007c0:	018b682a 	slt	t5,t4,t3
C:\Users\RampantVelcro\Desktop\Class\Fall2018\ECE540\ECE540FinalProject\Source\software\final_software_1/main.S:613
800007c4:	24010001 	li	at,1
800007c8:	11a10007 	beq	t5,at,800007e8 <SET_XYZ>
800007cc:	00000000 	nop

800007d0 <GT_TEMP_PLUS_TOLERANCE>:
C:\Users\RampantVelcro\Desktop\Class\Fall2018\ECE540\ECE540FinalProject\Source\software\final_software_1/main.S:616
800007d0:	00ea5820 	add	t3,a3,t2
C:\Users\RampantVelcro\Desktop\Class\Fall2018\ECE540\ECE540FinalProject\Source\software\final_software_1/main.S:617
800007d4:	018b682a 	slt	t5,t4,t3
C:\Users\RampantVelcro\Desktop\Class\Fall2018\ECE540\ECE540FinalProject\Source\software\final_software_1/main.S:618
800007d8:	11a00003 	beqz	t5,800007e8 <SET_XYZ>
800007dc:	00000000 	nop
C:\Users\RampantVelcro\Desktop\Class\Fall2018\ECE540\ECE540FinalProject\Source\software\final_software_1/main.S:619
800007e0:	03e00008 	jr	ra
800007e4:	00000000 	nop

800007e8 <SET_XYZ>:
C:\Users\RampantVelcro\Desktop\Class\Fall2018\ECE540\ECE540FinalProject\Source\software\final_software_1/main.S:623
800007e8:	03e00008 	jr	ra
800007ec:	01803820 	add	a3,t4,zero

800007f0 <LED_FUNCITON>:
C:\Users\RampantVelcro\Desktop\Class\Fall2018\ECE540\ECE540FinalProject\Source\software\final_software_1/main.S:631
800007f0:	3c0abf80 	lui	t2,0xbf80
C:\Users\RampantVelcro\Desktop\Class\Fall2018\ECE540\ECE540FinalProject\Source\software\final_software_1/main.S:632
800007f4:	310e0800 	andi	t6,t0,0x800
C:\Users\RampantVelcro\Desktop\Class\Fall2018\ECE540\ECE540FinalProject\Source\software\final_software_1/main.S:633
800007f8:	15c00003 	bnez	t6,80000808 <NEGATIVE>
800007fc:	00000000 	nop
C:\Users\RampantVelcro\Desktop\Class\Fall2018\ECE540\ECE540FinalProject\Source\software\final_software_1/main.S:634
80000800:	08000204 	j	80000810 <POSITIVE>
80000804:	00000000 	nop

80000808 <NEGATIVE>:
C:\Users\RampantVelcro\Desktop\Class\Fall2018\ECE540\ECE540FinalProject\Source\software\final_software_1/main.S:638
80000808:	08000206 	j	80000818 <checkposEnd>
8000080c:	02ecb825 	or	s7,s7,t4

80000810 <POSITIVE>:
C:\Users\RampantVelcro\Desktop\Class\Fall2018\ECE540\ECE540FinalProject\Source\software\final_software_1/main.S:642
80000810:	08000206 	j	80000818 <checkposEnd>
80000814:	02e7b824 	and	s7,s7,a3

80000818 <checkposEnd>:
C:\Users\RampantVelcro\Desktop\Class\Fall2018\ECE540\ECE540FinalProject\Source\software\final_software_1/main.S:646
80000818:	03e00008 	jr	ra
8000081c:	a5570000 	sh	s7,0(t2)
C:\Users\RampantVelcro\Desktop\Class\Fall2018\ECE540\ECE540FinalProject\Source\software\final_software_1/main.S:647
80000820:	00000000 	nop

80000824 <BCD_FUNCTION>:
C:\Users\RampantVelcro\Desktop\Class\Fall2018\ECE540\ECE540FinalProject\Source\software\final_software_1/main.S:655
80000824:	00071020 	add	v0,zero,a3
C:\Users\RampantVelcro\Desktop\Class\Fall2018\ECE540\ECE540FinalProject\Source\software\final_software_1/main.S:656
80000828:	304e0800 	andi	t6,v0,0x800
C:\Users\RampantVelcro\Desktop\Class\Fall2018\ECE540\ECE540FinalProject\Source\software\final_software_1/main.S:657
8000082c:	15c00003 	bnez	t6,8000083c <TWOS_COMPLEMENT>
80000830:	00000000 	nop
C:\Users\RampantVelcro\Desktop\Class\Fall2018\ECE540\ECE540FinalProject\Source\software\final_software_1/main.S:658
80000834:	08000212 	j	80000848 <SKIP_TWOS_COMPLEMENT>
80000838:	00000000 	nop

8000083c <TWOS_COMPLEMENT>:
C:\Users\RampantVelcro\Desktop\Class\Fall2018\ECE540\ECE540FinalProject\Source\software\final_software_1/main.S:661
8000083c:	00401027 	nor	v0,v0,zero
C:\Users\RampantVelcro\Desktop\Class\Fall2018\ECE540\ECE540FinalProject\Source\software\final_software_1/main.S:662
80000840:	20420001 	addi	v0,v0,1
C:\Users\RampantVelcro\Desktop\Class\Fall2018\ECE540\ECE540FinalProject\Source\software\final_software_1/main.S:663
80000844:	30420fff 	andi	v0,v0,0xfff

80000848 <SKIP_TWOS_COMPLEMENT>:
C:\Users\RampantVelcro\Desktop\Class\Fall2018\ECE540\ECE540FinalProject\Source\software\final_software_1/main.S:665
80000848:	24050000 	li	a1,0
C:\Users\RampantVelcro\Desktop\Class\Fall2018\ECE540\ECE540FinalProject\Source\software\final_software_1/main.S:666
8000084c:	24040000 	li	a0,0
C:\Users\RampantVelcro\Desktop\Class\Fall2018\ECE540\ECE540FinalProject\Source\software\final_software_1/main.S:667
80000850:	24180000 	li	t8,0
C:\Users\RampantVelcro\Desktop\Class\Fall2018\ECE540\ECE540FinalProject\Source\software\final_software_1/main.S:668
80000854:	24190000 	li	t9,0

80000858 <COUNT_1000S>:
C:\Users\RampantVelcro\Desktop\Class\Fall2018\ECE540\ECE540FinalProject\Source\software\final_software_1/main.S:670
80000858:	2043fc18 	addi	v1,v0,-1000
C:\Users\RampantVelcro\Desktop\Class\Fall2018\ECE540\ECE540FinalProject\Source\software\final_software_1/main.S:671
8000085c:	04600004 	bltz	v1,80000870 <COUNT_100S>
80000860:	00000000 	nop
C:\Users\RampantVelcro\Desktop\Class\Fall2018\ECE540\ECE540FinalProject\Source\software\final_software_1/main.S:672
80000864:	20a50001 	addi	a1,a1,1
C:\Users\RampantVelcro\Desktop\Class\Fall2018\ECE540\ECE540FinalProject\Source\software\final_software_1/main.S:674
80000868:	08000216 	j	80000858 <COUNT_1000S>
8000086c:	00031020 	add	v0,zero,v1

80000870 <COUNT_100S>:
C:\Users\RampantVelcro\Desktop\Class\Fall2018\ECE540\ECE540FinalProject\Source\software\final_software_1/main.S:677
80000870:	2043ff9c 	addi	v1,v0,-100
C:\Users\RampantVelcro\Desktop\Class\Fall2018\ECE540\ECE540FinalProject\Source\software\final_software_1/main.S:678
80000874:	04600004 	bltz	v1,80000888 <COUNT_10S>
80000878:	00000000 	nop
C:\Users\RampantVelcro\Desktop\Class\Fall2018\ECE540\ECE540FinalProject\Source\software\final_software_1/main.S:679
8000087c:	20840001 	addi	a0,a0,1
C:\Users\RampantVelcro\Desktop\Class\Fall2018\ECE540\ECE540FinalProject\Source\software\final_software_1/main.S:681
80000880:	0800021c 	j	80000870 <COUNT_100S>
80000884:	00031020 	add	v0,zero,v1

80000888 <COUNT_10S>:
C:\Users\RampantVelcro\Desktop\Class\Fall2018\ECE540\ECE540FinalProject\Source\software\final_software_1/main.S:684
80000888:	2043fff6 	addi	v1,v0,-10
C:\Users\RampantVelcro\Desktop\Class\Fall2018\ECE540\ECE540FinalProject\Source\software\final_software_1/main.S:685
8000088c:	04600004 	bltz	v1,800008a0 <COUNT_1S>
80000890:	00000000 	nop
C:\Users\RampantVelcro\Desktop\Class\Fall2018\ECE540\ECE540FinalProject\Source\software\final_software_1/main.S:686
80000894:	23180001 	addi	t8,t8,1
C:\Users\RampantVelcro\Desktop\Class\Fall2018\ECE540\ECE540FinalProject\Source\software\final_software_1/main.S:688
80000898:	08000222 	j	80000888 <COUNT_10S>
8000089c:	00031020 	add	v0,zero,v1

800008a0 <COUNT_1S>:
C:\Users\RampantVelcro\Desktop\Class\Fall2018\ECE540\ECE540FinalProject\Source\software\final_software_1/main.S:691
800008a0:	2043ffff 	addi	v1,v0,-1
C:\Users\RampantVelcro\Desktop\Class\Fall2018\ECE540\ECE540FinalProject\Source\software\final_software_1/main.S:692
800008a4:	04600004 	bltz	v1,800008b8 <END_BCD>
800008a8:	00000000 	nop
C:\Users\RampantVelcro\Desktop\Class\Fall2018\ECE540\ECE540FinalProject\Source\software\final_software_1/main.S:693
800008ac:	23390001 	addi	t9,t9,1
C:\Users\RampantVelcro\Desktop\Class\Fall2018\ECE540\ECE540FinalProject\Source\software\final_software_1/main.S:695
800008b0:	08000228 	j	800008a0 <COUNT_1S>
800008b4:	00031020 	add	v0,zero,v1

800008b8 <END_BCD>:
C:\Users\RampantVelcro\Desktop\Class\Fall2018\ECE540\ECE540FinalProject\Source\software\final_software_1/main.S:698
800008b8:	00052e00 	sll	a1,a1,0x18
C:\Users\RampantVelcro\Desktop\Class\Fall2018\ECE540\ECE540FinalProject\Source\software\final_software_1/main.S:699
800008bc:	00042400 	sll	a0,a0,0x10
C:\Users\RampantVelcro\Desktop\Class\Fall2018\ECE540\ECE540FinalProject\Source\software\final_software_1/main.S:700
800008c0:	0018c200 	sll	t8,t8,0x8
C:\Users\RampantVelcro\Desktop\Class\Fall2018\ECE540\ECE540FinalProject\Source\software\final_software_1/main.S:701
800008c4:	00852825 	or	a1,a0,a1
C:\Users\RampantVelcro\Desktop\Class\Fall2018\ECE540\ECE540FinalProject\Source\software\final_software_1/main.S:702
800008c8:	03052825 	or	a1,t8,a1
C:\Users\RampantVelcro\Desktop\Class\Fall2018\ECE540\ECE540FinalProject\Source\software\final_software_1/main.S:703
800008cc:	03252825 	or	a1,t9,a1
C:\Users\RampantVelcro\Desktop\Class\Fall2018\ECE540\ECE540FinalProject\Source\software\final_software_1/main.S:705
800008d0:	03e00008 	jr	ra
800008d4:	ad850000 	sw	a1,0(t4)
C:\Users\RampantVelcro\Desktop\Class\Fall2018\ECE540\ECE540FinalProject\Source\software\final_software_1/main.S:706
800008d8:	00000000 	nop

800008dc <TWOS_COMPLEMENT_FUNCTION>:
C:\Users\RampantVelcro\Desktop\Class\Fall2018\ECE540\ECE540FinalProject\Source\software\final_software_1/main.S:715
800008dc:	00401027 	nor	v0,v0,zero
C:\Users\RampantVelcro\Desktop\Class\Fall2018\ECE540\ECE540FinalProject\Source\software\final_software_1/main.S:716
800008e0:	20420001 	addi	v0,v0,1
C:\Users\RampantVelcro\Desktop\Class\Fall2018\ECE540\ECE540FinalProject\Source\software\final_software_1/main.S:718
800008e4:	03e00008 	jr	ra
800008e8:	30420fff 	andi	v0,v0,0xfff

Disassembly of section .debug_aranges:

00000000 <.debug_aranges>:
   0:	0000001c 	0x1c
   4:	00000002 	srl	zero,zero,0x0
   8:	00040000 	sll	zero,a0,0x0
   c:	00000000 	nop
  10:	9fc00144 	0x9fc00144
  14:	0000006c 	0x6c
	...
  20:	0000001c 	0x1c
  24:	00640002 	0x640002
  28:	00040000 	sll	zero,a0,0x0
  2c:	00000000 	nop
  30:	9fc00000 	0x9fc00000
  34:	00000144 	0x144
	...
  40:	0000001c 	0x1c
  44:	00c80002 	0xc80002
  48:	00040000 	sll	zero,a0,0x0
  4c:	00000000 	nop
  50:	80000000 	lb	zero,0(zero)
  54:	00000198 	0x198
	...
  60:	0000001c 	0x1c
  64:	01320002 	0x1320002
  68:	00040000 	sll	zero,a0,0x0
  6c:	00000000 	nop
  70:	80000200 	lb	zero,512(zero)
  74:	00000004 	sllv	zero,zero,zero
	...
  80:	0000001c 	0x1c
  84:	01970002 	0x1970002
  88:	00040000 	sll	zero,a0,0x0
  8c:	00000000 	nop
  90:	80000204 	lb	zero,516(zero)
  94:	000006e8 	0x6e8
	...

Disassembly of section .debug_info:

00000000 <.debug_info>:
   0:	00000060 	0x60
   4:	00000002 	srl	zero,zero,0x0
   8:	01040000 	0x1040000
   c:	00000000 	nop
  10:	9fc00144 	0x9fc00144
  14:	9fc001b0 	0x9fc001b0
  18:	30747263 	andi	s4,v1,0x7263
  1c:	4300532e 	c0	0x100532e
  20:	73555c3a 	0x73555c3a
  24:	5c737265 	0x5c737265
  28:	706d6152 	udi2	v1,t5,t4,0x5
  2c:	56746e61 	bnel	s3,s4,1b9b4 <BIT_12_MASK+0x1b1b4>
  30:	72636c65 	s8sdi	xr1,s3,-37,ptn0
  34:	65445c6f 	0x65445c6f
  38:	6f746b73 	0x6f746b73
  3c:	6f535c70 	0x6f535c70
  40:	6f725063 	0x6f725063
  44:	7463656a 	jalx	18d95a8 <__memory_size+0x18b9da8>
  48:	6f735c31 	0x6f735c31
  4c:	61777466 	0x61777466
  50:	47006572 	bz.b	$w0,1961c <BIT_12_MASK+0x18e1c>
  54:	4120554e 	0x4120554e
  58:	2e322053 	sltiu	s2,s1,8275
  5c:	392e3432 	xori	t6,t1,0x3432
  60:	80010030 	lb	at,48(zero)
  64:	00000060 	0x60
  68:	00140002 	srl	zero,s4,0x0
  6c:	01040000 	0x1040000
  70:	00000048 	0x48
  74:	9fc00000 	0x9fc00000
  78:	9fc00144 	0x9fc00144
  7c:	746f6f62 	jalx	1bdbd88 <__memory_size+0x1bbc588>
  80:	4300532e 	c0	0x100532e
  84:	73555c3a 	0x73555c3a
  88:	5c737265 	0x5c737265
  8c:	706d6152 	udi2	v1,t5,t4,0x5
  90:	56746e61 	bnel	s3,s4,1ba18 <BIT_12_MASK+0x1b218>
  94:	72636c65 	s8sdi	xr1,s3,-37,ptn0
  98:	65445c6f 	0x65445c6f
  9c:	6f746b73 	0x6f746b73
  a0:	6f535c70 	0x6f535c70
  a4:	6f725063 	0x6f725063
  a8:	7463656a 	jalx	18d95a8 <__memory_size+0x18b9da8>
  ac:	6f735c31 	0x6f735c31
  b0:	61777466 	0x61777466
  b4:	47006572 	bz.b	$w0,19680 <BIT_12_MASK+0x18e80>
  b8:	4120554e 	0x4120554e
  bc:	2e322053 	sltiu	s2,s1,8275
  c0:	392e3432 	xori	t6,t1,0x3432
  c4:	80010030 	lb	at,48(zero)
  c8:	00000066 	0x66
  cc:	00280002 	ror	zero,t0,0x0
  d0:	01040000 	0x1040000
  d4:	000000ce 	0xce
  d8:	80000000 	lb	zero,0(zero)
  dc:	80000198 	lb	zero,408(zero)
  e0:	65637865 	0x65637865
  e4:	6f697470 	0x6f697470
  e8:	532e736e 	beql	t9,t6,1cea4 <BIT_12_MASK+0x1c6a4>
  ec:	5c3a4300 	0x5c3a4300
  f0:	72657355 	s32sdi	xr13,s3,1392
  f4:	61525c73 	0x61525c73
  f8:	6e61706d 	0x6e61706d
  fc:	6c655674 	0x6c655674
 100:	5c6f7263 	0x5c6f7263
 104:	6b736544 	0x6b736544
 108:	5c706f74 	0x5c706f74
 10c:	50636f53 	beql	v1,v1,1be5c <BIT_12_MASK+0x1b65c>
 110:	656a6f72 	0x656a6f72
 114:	5c317463 	0x5c317463
 118:	74666f73 	jalx	199bdcc <__memory_size+0x197c5cc>
 11c:	65726177 	0x65726177
 120:	554e4700 	bnel	t2,t6,11d24 <BIT_12_MASK+0x11524>
 124:	20534120 	addi	s3,v0,16672
 128:	34322e32 	ori	s2,at,0x2e32
 12c:	0030392e 	0x30392e
 130:	00618001 	movt	s0,v1,$fcc0
 134:	00020000 	sll	zero,v0,0x0
 138:	0000003c 	0x3c
 13c:	011b0104 	0x11b0104
 140:	02000000 	0x2000000
 144:	02048000 	0x2048000
 148:	75648000 	jalx	5920000 <__memory_size+0x5900800>
 14c:	2e796d6d 	sltiu	t9,s3,28013
 150:	3a430053 	xori	v1,s2,0x53
 154:	6573555c 	0x6573555c
 158:	525c7372 	beql	s2,gp,1cf24 <BIT_12_MASK+0x1c724>
 15c:	61706d61 	0x61706d61
 160:	6556746e 	0x6556746e
 164:	6f72636c 	0x6f72636c
 168:	7365445c 	udi12	k1,a1,t0,0x11
 16c:	706f746b 	s16std	xr1,v1,-70,ptn1
 170:	636f535c 	0x636f535c
 174:	6a6f7250 	0x6a6f7250
 178:	31746365 	andi	s4,t3,0x6365
 17c:	666f735c 	0x666f735c
 180:	72617774 	q16sll	xr13,xr13,xr5,xr8,9
 184:	4e470065 	c3	0x470065
 188:	53412055 	beql	k0,at,82e0 <BIT_12_MASK+0x7ae0>
 18c:	322e3220 	andi	t6,s1,0x3220
 190:	30392e34 	andi	t9,at,0x2e34
 194:	95800100 	lhu	zero,256(t4)
 198:	02000000 	0x2000000
 19c:	00005000 	sll	t2,zero,0x0
 1a0:	52010400 	beql	s0,at,11a4 <BIT_12_MASK+0x9a4>
 1a4:	04000001 	bltz	zero,1ac <LED0_OFF+0xae>
 1a8:	ec800002 	swc3	$0,2(a0)
 1ac:	6d800008 	0x6d800008
 1b0:	2e6e6961 	sltiu	t6,s3,26977
 1b4:	3a430053 	xori	v1,s2,0x53
 1b8:	6573555c 	0x6573555c
 1bc:	525c7372 	beql	s2,gp,1cf88 <BIT_12_MASK+0x1c788>
 1c0:	61706d61 	0x61706d61
 1c4:	6556746e 	0x6556746e
 1c8:	6f72636c 	0x6f72636c
 1cc:	7365445c 	udi12	k1,a1,t0,0x11
 1d0:	706f746b 	s16std	xr1,v1,-70,ptn1
 1d4:	616c435c 	0x616c435c
 1d8:	465c7373 	c1	0x5c7373
 1dc:	326c6c61 	andi	t4,s3,0x6c61
 1e0:	5c383130 	0x5c383130
 1e4:	35454345 	ori	a1,t2,0x4345
 1e8:	455c3034 	bc1any4f	$fcc7,c2bc <BIT_12_MASK+0xbabc>
 1ec:	34354543 	ori	s5,at,0x4543
 1f0:	6e694630 	0x6e694630
 1f4:	72506c61 	0x72506c61
 1f8:	63656a6f 	0x63656a6f
 1fc:	6f535c74 	0x6f535c74
 200:	65637275 	0x65637275
 204:	666f735c 	0x666f735c
 208:	72617774 	q16sll	xr13,xr13,xr5,xr8,9
 20c:	69665c65 	0x69665c65
 210:	5f6c616e 	0x5f6c616e
 214:	74666f73 	jalx	199bdcc <__memory_size+0x197c5cc>
 218:	65726177 	0x65726177
 21c:	4700315f 	bz.b	$w0,c79c <BIT_12_MASK+0xbf9c>
 220:	4120554e 	0x4120554e
 224:	2e322053 	sltiu	s2,s1,8275
 228:	392e3432 	xori	t6,t1,0x3432
 22c:	80010030 	lb	at,48(zero)

Disassembly of section .debug_abbrev:

00000000 <.debug_abbrev>:
   0:	10001101 	b	4408 <BIT_12_MASK+0x3c08>
   4:	12011106 	beq	s0,at,4420 <BIT_12_MASK+0x3c20>
   8:	1b080301 	0x1b080301
   c:	13082508 	beq	t8,t0,9430 <BIT_12_MASK+0x8c30>
  10:	00000005 	lsa	zero,zero,zero,0x1
  14:	10001101 	b	441c <BIT_12_MASK+0x3c1c>
  18:	12011106 	beq	s0,at,4434 <BIT_12_MASK+0x3c34>
  1c:	1b080301 	0x1b080301
  20:	13082508 	beq	t8,t0,9444 <BIT_12_MASK+0x8c44>
  24:	00000005 	lsa	zero,zero,zero,0x1
  28:	10001101 	b	4430 <BIT_12_MASK+0x3c30>
  2c:	12011106 	beq	s0,at,4448 <BIT_12_MASK+0x3c48>
  30:	1b080301 	0x1b080301
  34:	13082508 	beq	t8,t0,9458 <BIT_12_MASK+0x8c58>
  38:	00000005 	lsa	zero,zero,zero,0x1
  3c:	10001101 	b	4444 <BIT_12_MASK+0x3c44>
  40:	12011106 	beq	s0,at,445c <BIT_12_MASK+0x3c5c>
  44:	1b080301 	0x1b080301
  48:	13082508 	beq	t8,t0,946c <BIT_12_MASK+0x8c6c>
  4c:	00000005 	lsa	zero,zero,zero,0x1
  50:	10001101 	b	4458 <BIT_12_MASK+0x3c58>
  54:	12011106 	beq	s0,at,4470 <BIT_12_MASK+0x3c70>
  58:	1b080301 	0x1b080301
  5c:	13082508 	beq	t8,t0,9480 <BIT_12_MASK+0x8c80>
  60:	00000005 	lsa	zero,zero,zero,0x1

Disassembly of section .debug_line:

00000000 <.debug_line>:
   0:	00000044 	0x44
   4:	001d0002 	srl	zero,sp,0x0
   8:	01010000 	0x1010000
   c:	000d0efb 	0xd0efb
  10:	01010101 	0x1010101
  14:	01000000 	0x1000000
  18:	00010000 	sll	zero,at,0x0
  1c:	30747263 	andi	s4,v1,0x7263
  20:	0000532e 	0x532e
  24:	00000000 	nop
  28:	01440205 	0x1440205
  2c:	0f039fc0 	jal	c0e7f00 <__memory_size+0xc0c8700>
  30:	84844c01 	lh	a0,19457(a0)
  34:	4b848383 	c2	0x1848383
  38:	4e4c8513 	c3	0x4c8513
  3c:	4d4b4b4b 	0x4d4b4b4b
  40:	024b8583 	0x24b8583
  44:	01010008 	0x1010008
  48:	00000082 	srl	zero,zero,0x2
  4c:	001d0002 	srl	zero,sp,0x0
  50:	01010000 	0x1010000
  54:	000d0efb 	0xd0efb
  58:	01010101 	0x1010101
  5c:	01000000 	0x1000000
  60:	00010000 	sll	zero,at,0x0
  64:	746f6f62 	jalx	1bdbd88 <__memory_size+0x1bbc588>
  68:	0000532e 	0x532e
  6c:	00000000 	nop
  70:	00000205 	0x205
  74:	13039fc0 	beq	t8,v1,fffe7f78 <__entry+0x403e7f78>
  78:	4d835101 	0x4d835101
  7c:	4a0a034d 	c2	0xa034d
  80:	4d4b4b4b 	0x4d4b4b4b
  84:	4b4b4b4b 	c2	0x14b4b4b
  88:	4b4d4b4b 	c2	0x14d4b4b
  8c:	4c4b4b4b 	0x4c4b4b4b
  90:	4b4b514b 	c2	0x14b514b
  94:	4c4b4c4b 	0x4c4b4c4b
  98:	4b4c4b4b 	c2	0x14c4b4b
  9c:	4b4c4b4b 	c2	0x14c4b4b
  a0:	4b4b4b4f 	c2	0x14b4b4f
  a4:	4b4a0c03 	c2	0x14a0c03
  a8:	834c4b4b 	lb	t4,19275(k0)
  ac:	4b4b504b 	c2	0x14b504b
  b0:	4c4b4c4b 	0x4c4b4c4b
  b4:	4b4c4b4b 	c2	0x14c4b4b
  b8:	4b4c4b4b 	c2	0x14c4b4b
  bc:	4b4b4f4b 	c2	0x14b4f4b
  c0:	4c834f4b 	0x4c834f4b
  c4:	504e4b83 	beql	v0,t6,12ed4 <BIT_12_MASK+0x126d4>
  c8:	0004024b 	0x4024b
  cc:	00490101 	0x490101
  d0:	00020000 	sll	zero,v0,0x0
  d4:	00000023 	negu	zero,zero
  d8:	0efb0101 	jal	bec0404 <__memory_size+0xbea0c04>
  dc:	0101000d 	break	0x101
  e0:	00000101 	0x101
  e4:	00000100 	sll	zero,zero,0x4
  e8:	78650001 	bmnzi.b	$w0,$w0,0x65
  ec:	74706563 	jalx	1c1958c <__memory_size+0x1bf9d8c>
  f0:	736e6f69 	0x736e6f69
  f4:	0000532e 	0x532e
  f8:	00000000 	nop
  fc:	00000205 	0x205
 100:	2c038000 	sltiu	v1,zero,-32768
 104:	02838301 	0x2838301
 108:	83831770 	lb	v1,6000(gp)
 10c:	83177002 	lb	s7,28674(t8)
 110:	17700283 	bne	k1,s0,b20 <BIT_12_MASK+0x320>
 114:	08028383 	j	a0e0c <__memory_size+0x8160c>
 118:	33010100 	andi	at,t8,0x100
 11c:	02000000 	0x2000000
 120:	00001e00 	sll	v1,zero,0x18
 124:	fb010100 	sdc2	$1,256(t8)
 128:	01000d0e 	0x1000d0e
 12c:	00010101 	0x10101
 130:	00010000 	sll	zero,at,0x0
 134:	64000100 	0x64000100
 138:	796d6d75 	0x796d6d75
 13c:	0000532e 	0x532e
 140:	00000000 	nop
 144:	02000205 	0x2000205
 148:	3a038000 	xori	v1,s0,0x8000
 14c:	00040201 	0x40201
 150:	01890101 	0x1890101
 154:	00020000 	sll	zero,v0,0x0
 158:	0000001d 	0x1d
 15c:	0efb0101 	jal	bec0404 <__memory_size+0xbea0c04>
 160:	0101000d 	break	0x101
 164:	00000101 	0x101
 168:	00000100 	sll	zero,zero,0x4
 16c:	616d0001 	0x616d0001
 170:	532e6e69 	beql	t9,t6,1bb18 <BIT_12_MASK+0x1b318>
 174:	00000000 	nop
 178:	02050000 	0x2050000
 17c:	80000204 	lb	zero,516(zero)
 180:	0100eb03 	0x100eb03
 184:	4b4b4b4b 	c2	0x14b4b4b
 188:	4d4b4b4b 	0x4d4b4b4b
 18c:	834d8383 	lb	t5,-31869(k0)
 190:	4b4b4d4b 	c2	0x14b4d4b
 194:	8483834c 	lh	v1,-31924(a0)
 198:	4b4d4b4b 	c2	0x14d4b4b
 19c:	4b83504b 	c2	0x183504b
 1a0:	834b4b4b 	lb	t3,19275(k0)
 1a4:	4b4c4e4b 	c2	0x14c4e4b
 1a8:	4b4d8313 	c2	0x14d8313
 1ac:	4b4d8313 	c2	0x14d8313
 1b0:	83168313 	lb	s6,-31981(t8)
 1b4:	144b8385 	bne	v0,t3,fffe0fcc <__entry+0x403e0fcc>
 1b8:	4b4b8983 	c2	0x14b8983
 1bc:	4b4b8513 	c2	0x14b8513
 1c0:	4b4b8513 	c2	0x14b8513
 1c4:	13838513 	beq	gp,v1,fffe1614 <__entry+0x403e1614>
 1c8:	86138385 	lh	s3,-31867(s0)
 1cc:	83858385 	lb	a1,-31867(gp)
 1d0:	134b834b 	beq	k0,t3,fffe0f00 <__entry+0x403e0f00>
 1d4:	83838583 	lb	v1,-31357(gp)
 1d8:	85838385 	lh	v1,-31867(t4)
 1dc:	1a038383 	0x1a038383
 1e0:	85831382 	lh	v1,4994(t4)
 1e4:	83838583 	lb	v1,-31357(gp)
 1e8:	4b85834b 	c2	0x185834b
 1ec:	4b851383 	c2	0x1851383
 1f0:	88851383 	lwl	a1,4995(a0)
 1f4:	85138583 	lh	s3,-31357(t0)
 1f8:	8885134b 	lwl	a1,4939(a0)
 1fc:	834b4b4b 	lb	t3,19275(k0)
 200:	85834b85 	lh	v1,19333(t4)
 204:	4b85834b 	c2	0x185834b
 208:	8513834b 	lh	s3,-31925(t0)
 20c:	13834b4b 	beq	gp,v1,12f3c <BIT_12_MASK+0x1273c>
 210:	83858385 	lb	a1,-31867(gp)
 214:	88858313 	lwl	a1,-31981(a0)
 218:	4b4b834b 	c2	0x14b834b
 21c:	834b8813 	lb	t3,-30701(k0)
 220:	834b834b 	lb	t3,-31925(k0)
 224:	4b881383 	c2	0x1881383
 228:	4c834b83 	0x4c834b83
 22c:	834b834b 	lb	t3,-31925(k0)
 230:	14838814 	bne	a0,v1,fffe2284 <__entry+0x403e2284>
 234:	82090384 	lb	t1,900(s0)
 238:	134b4d4b 	beq	k0,t3,13768 <BIT_12_MASK+0x12f68>
 23c:	13858383 	beq	gp,a1,fffe104c <__entry+0x403e104c>
 240:	85831383 	lh	v1,4995(t4)
 244:	4b4d8313 	c2	0x14d8313
 248:	844b844b 	lh	t3,-31669(v0)
 24c:	834b8613 	lb	t3,-31213(k0)
 250:	13858385 	beq	gp,a1,fffe1068 <__entry+0x403e1068>
 254:	4b861385 	c2	0x1861385
 258:	85838583 	lh	v1,-31357(t4)
 25c:	86138513 	lh	s3,-31469(s0)
 260:	83838313 	lb	v1,-31981(gp)
 264:	85138385 	lh	s3,-31867(t0)
 268:	85138513 	lh	s3,-31469(t0)
 26c:	4c4b8913 	0x4c4b8913
 270:	85834b4b 	lh	v1,19275(t4)
 274:	834b4b4b 	lb	t3,19275(k0)
 278:	4b4b4b85 	c2	0x14b4b85
 27c:	85138583 	lh	s3,-31357(t0)
 280:	85834b4b 	lh	v1,19275(t4)
 284:	834b4b4b 	lb	t3,19275(k0)
 288:	4b4b4b85 	c2	0x14b4b85
 28c:	88138583 	lwl	s3,-31357(zero)
 290:	4b4b4b4b 	c2	0x14b4b4b
 294:	0e031483 	jal	80c520c <__memory_size+0x80a5a0c>
 298:	bd4b4b82 	cache	0xb,19330(t2)
 29c:	85834b4b 	lh	v1,19275(t4)
 2a0:	4b4b8a13 	c2	0x14b8a13
 2a4:	85138583 	lh	s3,-31357(t0)
 2a8:	83138513 	lb	s3,-31469(t8)
 2ac:	834b4b52 	lb	t3,19282(k0)
 2b0:	4c4b4b85 	0x4c4b4b85
 2b4:	4c4b4b4b 	0x4c4b4b4b
 2b8:	134b834b 	beq	k0,t3,fffe0fe8 <__entry+0x403e0fe8>
 2bc:	4b834b85 	c2	0x1834b85
 2c0:	834b8513 	lb	t3,-31469(k0)
 2c4:	4b85134b 	c2	0x185134b
 2c8:	85134b83 	lh	s3,19331(t0)
 2cc:	4b4b4b4b 	c2	0x14b4b4b
 2d0:	83134b4b 	lb	s3,19275(t8)
 2d4:	4b4a0903 	c2	0x14a0903
 2d8:	0802134b 	j	84d2c <__memory_size+0x6552c>
 2dc:	Address 0x00000000000002dc is out of bounds.


Disassembly of section .pdr:

00000000 <.pdr>:
   0:	9fc00144 	0x9fc00144
	...
  20:	9fc00000 	0x9fc00000
	...
  40:	80000000 	lb	zero,0(zero)
	...
  60:	80000200 	lb	zero,512(zero)
	...
  80:	80000200 	lb	zero,512(zero)
	...
  a0:	80000200 	lb	zero,512(zero)
	...
  c0:	80000200 	lb	zero,512(zero)
	...
  e0:	80000200 	lb	zero,512(zero)
	...

Disassembly of section .gnu.attributes:

00000000 <.gnu.attributes>:
   0:	00000f41 	0xf41
   4:	756e6700 	jalx	5b99c00 <__memory_size+0x5b7a400>
   8:	00070100 	sll	zero,a3,0x4
   c:	03040000 	0x3040000
